
/tmp/xp1/b001/_cgo_.o:     file format elf64-littleriscv


Disassembly of section .text:

0000000000010120 <exit>:
   10120:	1141                	addi	sp,sp,-16
   10122:	4581                	li	a1,0
   10124:	e022                	sd	s0,0(sp)
   10126:	e406                	sd	ra,8(sp)
   10128:	842a                	mv	s0,a0
   1012a:	74d000ef          	jal	11076 <__call_exitprocs>
   1012e:	2501b783          	ld	a5,592(gp) # 1b8c0 <__stdio_exit_handler>
   10132:	c391                	beqz	a5,10136 <exit+0x16>
   10134:	9782                	jalr	a5
   10136:	8522                	mv	a0,s0
   10138:	7d9070ef          	jal	18110 <_exit>

000000000001013c <main>:
   1013c:	4501                	li	a0,0
   1013e:	8082                	ret

0000000000010140 <register_fini>:
   10140:	00000793          	li	a5,0
   10144:	c791                	beqz	a5,10150 <register_fini+0x10>
   10146:	6551                	lui	a0,0x14
   10148:	e9450513          	addi	a0,a0,-364 # 13e94 <__libc_fini_array>
   1014c:	7f90006f          	j	11144 <atexit>
   10150:	8082                	ret

0000000000010152 <_start>:
   10152:	0000b197          	auipc	gp,0xb
   10156:	51e18193          	addi	gp,gp,1310 # 1b670 <__global_pointer$>
   1015a:	23818513          	addi	a0,gp,568 # 1b8a8 <__malloc_max_total_mem>
   1015e:	0000c617          	auipc	a2,0xc
   10162:	d1260613          	addi	a2,a2,-750 # 1be70 <__BSS_END__>
   10166:	8e09                	sub	a2,a2,a0
   10168:	4581                	li	a1,0
   1016a:	663000ef          	jal	10fcc <memset>
   1016e:	00001517          	auipc	a0,0x1
   10172:	fd650513          	addi	a0,a0,-42 # 11144 <atexit>
   10176:	c519                	beqz	a0,10184 <_start+0x32>
   10178:	00004517          	auipc	a0,0x4
   1017c:	d1c50513          	addi	a0,a0,-740 # 13e94 <__libc_fini_array>
   10180:	7c5000ef          	jal	11144 <atexit>
   10184:	5df000ef          	jal	10f62 <__libc_init_array>
   10188:	4502                	lw	a0,0(sp)
   1018a:	002c                	addi	a1,sp,8
   1018c:	4601                	li	a2,0
   1018e:	fafff0ef          	jal	1013c <main>
   10192:	b779                	j	10120 <exit>

0000000000010194 <deregister_tm_clones>:
   10194:	1a018513          	addi	a0,gp,416 # 1b810 <__TMC_END__>
   10198:	1a018793          	addi	a5,gp,416 # 1b810 <__TMC_END__>
   1019c:	00a78663          	beq	a5,a0,101a8 <deregister_tm_clones+0x14>
   101a0:	00000793          	li	a5,0
   101a4:	c391                	beqz	a5,101a8 <deregister_tm_clones+0x14>
   101a6:	8782                	jr	a5
   101a8:	8082                	ret

00000000000101aa <register_tm_clones>:
   101aa:	1a018513          	addi	a0,gp,416 # 1b810 <__TMC_END__>
   101ae:	1a018593          	addi	a1,gp,416 # 1b810 <__TMC_END__>
   101b2:	8d89                	sub	a1,a1,a0
   101b4:	858d                	srai	a1,a1,0x3
   101b6:	4789                	li	a5,2
   101b8:	02f5c5b3          	div	a1,a1,a5
   101bc:	c589                	beqz	a1,101c6 <register_tm_clones+0x1c>
   101be:	00000793          	li	a5,0
   101c2:	c391                	beqz	a5,101c6 <register_tm_clones+0x1c>
   101c4:	8782                	jr	a5
   101c6:	8082                	ret

00000000000101c8 <__do_global_dtors_aux>:
   101c8:	1141                	addi	sp,sp,-16
   101ca:	e022                	sd	s0,0(sp)
   101cc:	27818413          	addi	s0,gp,632 # 1b8e8 <completed.1>
   101d0:	00044783          	lbu	a5,0(s0)
   101d4:	e406                	sd	ra,8(sp)
   101d6:	e38d                	bnez	a5,101f8 <__do_global_dtors_aux+0x30>
   101d8:	fbdff0ef          	jal	10194 <deregister_tm_clones>
   101dc:	00000793          	li	a5,0
   101e0:	cb89                	beqz	a5,101f2 <__do_global_dtors_aux+0x2a>
   101e2:	0000b517          	auipc	a0,0xb
   101e6:	ae650513          	addi	a0,a0,-1306 # 1acc8 <__EH_FRAME_BEGIN__>
   101ea:	00000097          	auipc	ra,0x0
   101ee:	000000e7          	jalr	zero # 0 <exit-0x10120>
   101f2:	4785                	li	a5,1
   101f4:	00f40023          	sb	a5,0(s0)
   101f8:	60a2                	ld	ra,8(sp)
   101fa:	6402                	ld	s0,0(sp)
   101fc:	0141                	addi	sp,sp,16
   101fe:	8082                	ret

0000000000010200 <frame_dummy>:
   10200:	00000793          	li	a5,0
   10204:	cf99                	beqz	a5,10222 <frame_dummy+0x22>
   10206:	1141                	addi	sp,sp,-16
   10208:	28018593          	addi	a1,gp,640 # 1b8f0 <object.0>
   1020c:	0000b517          	auipc	a0,0xb
   10210:	abc50513          	addi	a0,a0,-1348 # 1acc8 <__EH_FRAME_BEGIN__>
   10214:	e406                	sd	ra,8(sp)
   10216:	00000097          	auipc	ra,0x0
   1021a:	000000e7          	jalr	zero # 0 <exit-0x10120>
   1021e:	60a2                	ld	ra,8(sp)
   10220:	0141                	addi	sp,sp,16
   10222:	b761                	j	101aa <register_tm_clones>

0000000000010224 <crosscall2>:
   10224:	8082                	ret

0000000000010226 <_cgo_wait_runtime_init_done>:
   10226:	4501                	li	a0,0
   10228:	8082                	ret

000000000001022a <_cgo_release_context>:
   1022a:	8082                	ret

000000000001022c <_cgo_topofstack>:
   1022c:	4501                	li	a0,0
   1022e:	8082                	ret

0000000000010230 <_cgo_allocate>:
   10230:	8082                	ret

0000000000010232 <_cgo_panic>:
   10232:	8082                	ret

0000000000010234 <_cgo_reginit>:
   10234:	8082                	ret

0000000000010236 <_cgo_c24f65ffdaf7_Cfunc__Cmalloc>:
   10236:	1101                	addi	sp,sp,-32
   10238:	e822                	sd	s0,16(sp)
   1023a:	842a                	mv	s0,a0
   1023c:	00154503          	lbu	a0,1(a0)
   10240:	00044783          	lbu	a5,0(s0)
   10244:	00244583          	lbu	a1,2(s0)
   10248:	00344603          	lbu	a2,3(s0)
   1024c:	00444683          	lbu	a3,4(s0)
   10250:	0522                	slli	a0,a0,0x8
   10252:	8d5d                	or	a0,a0,a5
   10254:	00544703          	lbu	a4,5(s0)
   10258:	05c2                	slli	a1,a1,0x10
   1025a:	8dc9                	or	a1,a1,a0
   1025c:	00644783          	lbu	a5,6(s0)
   10260:	0662                	slli	a2,a2,0x18
   10262:	e426                	sd	s1,8(sp)
   10264:	8e4d                	or	a2,a2,a1
   10266:	00744483          	lbu	s1,7(s0)
   1026a:	1682                	slli	a3,a3,0x20
   1026c:	8ed1                	or	a3,a3,a2
   1026e:	1722                	slli	a4,a4,0x28
   10270:	8f55                	or	a4,a4,a3
   10272:	17c2                	slli	a5,a5,0x30
   10274:	8fd9                	or	a5,a5,a4
   10276:	14e2                	slli	s1,s1,0x38
   10278:	8cdd                	or	s1,s1,a5
   1027a:	8526                	mv	a0,s1
   1027c:	ec06                	sd	ra,24(sp)
   1027e:	0f2000ef          	jal	10370 <malloc>
   10282:	c521                	beqz	a0,102ca <_cgo_c24f65ffdaf7_Cfunc__Cmalloc+0x94>
   10284:	00855893          	srli	a7,a0,0x8
   10288:	01055813          	srli	a6,a0,0x10
   1028c:	0185559b          	srliw	a1,a0,0x18
   10290:	02055613          	srli	a2,a0,0x20
   10294:	02855693          	srli	a3,a0,0x28
   10298:	03055713          	srli	a4,a0,0x30
   1029c:	03855793          	srli	a5,a0,0x38
   102a0:	60e2                	ld	ra,24(sp)
   102a2:	00a40423          	sb	a0,8(s0)
   102a6:	011404a3          	sb	a7,9(s0)
   102aa:	01040523          	sb	a6,10(s0)
   102ae:	00b405a3          	sb	a1,11(s0)
   102b2:	00c40623          	sb	a2,12(s0)
   102b6:	00d406a3          	sb	a3,13(s0)
   102ba:	00e40723          	sb	a4,14(s0)
   102be:	00f407a3          	sb	a5,15(s0)
   102c2:	6442                	ld	s0,16(sp)
   102c4:	64a2                	ld	s1,8(sp)
   102c6:	6105                	addi	sp,sp,32
   102c8:	8082                	ret
   102ca:	fccd                	bnez	s1,10284 <_cgo_c24f65ffdaf7_Cfunc__Cmalloc+0x4e>
   102cc:	4505                	li	a0,1
   102ce:	0a2000ef          	jal	10370 <malloc>
   102d2:	bf4d                	j	10284 <_cgo_c24f65ffdaf7_Cfunc__Cmalloc+0x4e>

00000000000102d4 <hello>:
   102d4:	862e                	mv	a2,a1
   102d6:	85aa                	mv	a1,a0
   102d8:	00009517          	auipc	a0,0x9
   102dc:	21850513          	addi	a0,a0,536 # 194f0 <__clzdi2+0x40>
   102e0:	1df0006f          	j	10cbe <printf>

00000000000102e4 <_cgo_c24f65ffdaf7_Cfunc_hello>:
   102e4:	00954f83          	lbu	t6,9(a0)
   102e8:	00154583          	lbu	a1,1(a0)
   102ec:	00854703          	lbu	a4,8(a0)
   102f0:	00054783          	lbu	a5,0(a0)
   102f4:	00a54f03          	lbu	t5,10(a0)
   102f8:	00254e83          	lbu	t4,2(a0)
   102fc:	00b54e03          	lbu	t3,11(a0)
   10300:	00354303          	lbu	t1,3(a0)
   10304:	00c54883          	lbu	a7,12(a0)
   10308:	00454803          	lbu	a6,4(a0)
   1030c:	0fa2                	slli	t6,t6,0x8
   1030e:	05a2                	slli	a1,a1,0x8
   10310:	8ddd                	or	a1,a1,a5
   10312:	00d54603          	lbu	a2,13(a0)
   10316:	00554683          	lbu	a3,5(a0)
   1031a:	00efefb3          	or	t6,t6,a4
   1031e:	0f42                	slli	t5,t5,0x10
   10320:	0ec2                	slli	t4,t4,0x10
   10322:	00e54703          	lbu	a4,14(a0)
   10326:	00654783          	lbu	a5,6(a0)
   1032a:	00beeeb3          	or	t4,t4,a1
   1032e:	01ff6f33          	or	t5,t5,t6
   10332:	0e62                	slli	t3,t3,0x18
   10334:	0362                	slli	t1,t1,0x18
   10336:	00f54583          	lbu	a1,15(a0)
   1033a:	01ee6e33          	or	t3,t3,t5
   1033e:	00754503          	lbu	a0,7(a0)
   10342:	1882                	slli	a7,a7,0x20
   10344:	01d36333          	or	t1,t1,t4
   10348:	1802                	slli	a6,a6,0x20
   1034a:	01c8e8b3          	or	a7,a7,t3
   1034e:	1622                	slli	a2,a2,0x28
   10350:	00686833          	or	a6,a6,t1
   10354:	16a2                	slli	a3,a3,0x28
   10356:	01166633          	or	a2,a2,a7
   1035a:	1742                	slli	a4,a4,0x30
   1035c:	0106e6b3          	or	a3,a3,a6
   10360:	17c2                	slli	a5,a5,0x30
   10362:	8f51                	or	a4,a4,a2
   10364:	15e2                	slli	a1,a1,0x38
   10366:	8fd5                	or	a5,a5,a3
   10368:	1562                	slli	a0,a0,0x38
   1036a:	8dd9                	or	a1,a1,a4
   1036c:	8d5d                	or	a0,a0,a5
   1036e:	b79d                	j	102d4 <hello>

0000000000010370 <malloc>:
   10370:	85aa                	mv	a1,a0
   10372:	2301b503          	ld	a0,560(gp) # 1b8a0 <_impure_ptr>
   10376:	a031                	j	10382 <_malloc_r>

0000000000010378 <free>:
   10378:	85aa                	mv	a1,a0
   1037a:	2301b503          	ld	a0,560(gp) # 1b8a0 <_impure_ptr>
   1037e:	69f0006f          	j	1121c <_free_r>

0000000000010382 <_malloc_r>:
   10382:	711d                	addi	sp,sp,-96
   10384:	e4a6                	sd	s1,72(sp)
   10386:	e0ca                	sd	s2,64(sp)
   10388:	ec86                	sd	ra,88(sp)
   1038a:	e8a2                	sd	s0,80(sp)
   1038c:	fc4e                	sd	s3,56(sp)
   1038e:	01758493          	addi	s1,a1,23
   10392:	02e00793          	li	a5,46
   10396:	892a                	mv	s2,a0
   10398:	0497eb63          	bltu	a5,s1,103ee <_malloc_r+0x6c>
   1039c:	02000493          	li	s1,32
   103a0:	18b4e863          	bltu	s1,a1,10530 <_malloc_r+0x1ae>
   103a4:	60a000ef          	jal	109ae <__malloc_lock>
   103a8:	05000793          	li	a5,80
   103ac:	4591                	li	a1,4
   103ae:	69ed                	lui	s3,0x1b
   103b0:	ce898993          	addi	s3,s3,-792 # 1ace8 <__malloc_av_>
   103b4:	97ce                	add	a5,a5,s3
   103b6:	6780                	ld	s0,8(a5)
   103b8:	ff078713          	addi	a4,a5,-16
   103bc:	32e40963          	beq	s0,a4,106ee <_malloc_r+0x36c>
   103c0:	641c                	ld	a5,8(s0)
   103c2:	6c14                	ld	a3,24(s0)
   103c4:	6810                	ld	a2,16(s0)
   103c6:	9bf1                	andi	a5,a5,-4
   103c8:	97a2                	add	a5,a5,s0
   103ca:	6798                	ld	a4,8(a5)
   103cc:	ee14                	sd	a3,24(a2)
   103ce:	ea90                	sd	a2,16(a3)
   103d0:	00176713          	ori	a4,a4,1
   103d4:	854a                	mv	a0,s2
   103d6:	e798                	sd	a4,8(a5)
   103d8:	5d8000ef          	jal	109b0 <__malloc_unlock>
   103dc:	60e6                	ld	ra,88(sp)
   103de:	01040513          	addi	a0,s0,16
   103e2:	6446                	ld	s0,80(sp)
   103e4:	64a6                	ld	s1,72(sp)
   103e6:	6906                	ld	s2,64(sp)
   103e8:	79e2                	ld	s3,56(sp)
   103ea:	6125                	addi	sp,sp,96
   103ec:	8082                	ret
   103ee:	800007b7          	lui	a5,0x80000
   103f2:	98c1                	andi	s1,s1,-16
   103f4:	fff7c793          	not	a5,a5
   103f8:	1297ec63          	bltu	a5,s1,10530 <_malloc_r+0x1ae>
   103fc:	12b4ea63          	bltu	s1,a1,10530 <_malloc_r+0x1ae>
   10400:	5ae000ef          	jal	109ae <__malloc_lock>
   10404:	1f700793          	li	a5,503
   10408:	3c97fe63          	bgeu	a5,s1,107e4 <_malloc_r+0x462>
   1040c:	0094d793          	srli	a5,s1,0x9
   10410:	12078b63          	beqz	a5,10546 <_malloc_r+0x1c4>
   10414:	4711                	li	a4,4
   10416:	32f76363          	bltu	a4,a5,1073c <_malloc_r+0x3ba>
   1041a:	0064d793          	srli	a5,s1,0x6
   1041e:	0397859b          	addiw	a1,a5,57 # ffffffff80000039 <__BSS_END__+0xffffffff7ffe41c9>
   10422:	0015961b          	slliw	a2,a1,0x1
   10426:	0387881b          	addiw	a6,a5,56
   1042a:	060e                	slli	a2,a2,0x3
   1042c:	69ed                	lui	s3,0x1b
   1042e:	ce898993          	addi	s3,s3,-792 # 1ace8 <__malloc_av_>
   10432:	964e                	add	a2,a2,s3
   10434:	6600                	ld	s0,8(a2)
   10436:	1641                	addi	a2,a2,-16
   10438:	02860163          	beq	a2,s0,1045a <_malloc_r+0xd8>
   1043c:	457d                	li	a0,31
   1043e:	a039                	j	1044c <_malloc_r+0xca>
   10440:	6c14                	ld	a3,24(s0)
   10442:	28075263          	bgez	a4,106c6 <_malloc_r+0x344>
   10446:	00d60a63          	beq	a2,a3,1045a <_malloc_r+0xd8>
   1044a:	8436                	mv	s0,a3
   1044c:	641c                	ld	a5,8(s0)
   1044e:	9bf1                	andi	a5,a5,-4
   10450:	40978733          	sub	a4,a5,s1
   10454:	fee556e3          	bge	a0,a4,10440 <_malloc_r+0xbe>
   10458:	85c2                	mv	a1,a6
   1045a:	0209b403          	ld	s0,32(s3)
   1045e:	686d                	lui	a6,0x1b
   10460:	cf880813          	addi	a6,a6,-776 # 1acf8 <__malloc_av_+0x10>
   10464:	25040e63          	beq	s0,a6,106c0 <_malloc_r+0x33e>
   10468:	641c                	ld	a5,8(s0)
   1046a:	46fd                	li	a3,31
   1046c:	9bf1                	andi	a5,a5,-4
   1046e:	40978733          	sub	a4,a5,s1
   10472:	34e6c263          	blt	a3,a4,107b6 <_malloc_r+0x434>
   10476:	0309b423          	sd	a6,40(s3)
   1047a:	0309b023          	sd	a6,32(s3)
   1047e:	32075163          	bgez	a4,107a0 <_malloc_r+0x41e>
   10482:	1ff00713          	li	a4,511
   10486:	0089b503          	ld	a0,8(s3)
   1048a:	26f76763          	bltu	a4,a5,106f8 <_malloc_r+0x376>
   1048e:	838d                	srli	a5,a5,0x3
   10490:	2781                	sext.w	a5,a5
   10492:	0017871b          	addiw	a4,a5,1
   10496:	0017171b          	slliw	a4,a4,0x1
   1049a:	070e                	slli	a4,a4,0x3
   1049c:	974e                	add	a4,a4,s3
   1049e:	6310                	ld	a2,0(a4)
   104a0:	4027d79b          	sraiw	a5,a5,0x2
   104a4:	4685                	li	a3,1
   104a6:	00f697b3          	sll	a5,a3,a5
   104aa:	8d5d                	or	a0,a0,a5
   104ac:	ff070793          	addi	a5,a4,-16
   104b0:	e810                	sd	a2,16(s0)
   104b2:	ec1c                	sd	a5,24(s0)
   104b4:	00a9b423          	sd	a0,8(s3)
   104b8:	e300                	sd	s0,0(a4)
   104ba:	ee00                	sd	s0,24(a2)
   104bc:	4025d79b          	sraiw	a5,a1,0x2
   104c0:	4605                	li	a2,1
   104c2:	00f61633          	sll	a2,a2,a5
   104c6:	08c56763          	bltu	a0,a2,10554 <_malloc_r+0x1d2>
   104ca:	00a677b3          	and	a5,a2,a0
   104ce:	ef81                	bnez	a5,104e6 <_malloc_r+0x164>
   104d0:	0606                	slli	a2,a2,0x1
   104d2:	99f1                	andi	a1,a1,-4
   104d4:	00a677b3          	and	a5,a2,a0
   104d8:	2591                	addiw	a1,a1,4
   104da:	e791                	bnez	a5,104e6 <_malloc_r+0x164>
   104dc:	0606                	slli	a2,a2,0x1
   104de:	00a677b3          	and	a5,a2,a0
   104e2:	2591                	addiw	a1,a1,4
   104e4:	dfe5                	beqz	a5,104dc <_malloc_r+0x15a>
   104e6:	48fd                	li	a7,31
   104e8:	0015831b          	addiw	t1,a1,1
   104ec:	0013131b          	slliw	t1,t1,0x1
   104f0:	030e                	slli	t1,t1,0x3
   104f2:	1341                	addi	t1,t1,-16
   104f4:	934e                	add	t1,t1,s3
   104f6:	851a                	mv	a0,t1
   104f8:	6d1c                	ld	a5,24(a0)
   104fa:	8e2e                	mv	t3,a1
   104fc:	26f50163          	beq	a0,a5,1075e <_malloc_r+0x3dc>
   10500:	6798                	ld	a4,8(a5)
   10502:	843e                	mv	s0,a5
   10504:	6f9c                	ld	a5,24(a5)
   10506:	9b71                	andi	a4,a4,-4
   10508:	409706b3          	sub	a3,a4,s1
   1050c:	26d8c063          	blt	a7,a3,1076c <_malloc_r+0x3ea>
   10510:	fe06c6e3          	bltz	a3,104fc <_malloc_r+0x17a>
   10514:	9722                	add	a4,a4,s0
   10516:	6714                	ld	a3,8(a4)
   10518:	6810                	ld	a2,16(s0)
   1051a:	854a                	mv	a0,s2
   1051c:	0016e693          	ori	a3,a3,1
   10520:	e714                	sd	a3,8(a4)
   10522:	ee1c                	sd	a5,24(a2)
   10524:	eb90                	sd	a2,16(a5)
   10526:	48a000ef          	jal	109b0 <__malloc_unlock>
   1052a:	01040513          	addi	a0,s0,16
   1052e:	a029                	j	10538 <_malloc_r+0x1b6>
   10530:	47b1                	li	a5,12
   10532:	00f92023          	sw	a5,0(s2)
   10536:	4501                	li	a0,0
   10538:	60e6                	ld	ra,88(sp)
   1053a:	6446                	ld	s0,80(sp)
   1053c:	64a6                	ld	s1,72(sp)
   1053e:	6906                	ld	s2,64(sp)
   10540:	79e2                	ld	s3,56(sp)
   10542:	6125                	addi	sp,sp,96
   10544:	8082                	ret
   10546:	40000613          	li	a2,1024
   1054a:	04000593          	li	a1,64
   1054e:	03f00813          	li	a6,63
   10552:	bde9                	j	1042c <_malloc_r+0xaa>
   10554:	0109b403          	ld	s0,16(s3)
   10558:	f456                	sd	s5,40(sp)
   1055a:	641c                	ld	a5,8(s0)
   1055c:	ffc7fa93          	andi	s5,a5,-4
   10560:	009ae763          	bltu	s5,s1,1056e <_malloc_r+0x1ec>
   10564:	409a8733          	sub	a4,s5,s1
   10568:	47fd                	li	a5,31
   1056a:	12e7c563          	blt	a5,a4,10694 <_malloc_r+0x312>
   1056e:	e466                	sd	s9,8(sp)
   10570:	f852                	sd	s4,48(sp)
   10572:	2201b703          	ld	a4,544(gp) # 1b890 <__malloc_sbrk_base>
   10576:	2481ba03          	ld	s4,584(gp) # 1b8b8 <__malloc_top_pad>
   1057a:	ec5e                	sd	s7,24(sp)
   1057c:	f05a                	sd	s6,32(sp)
   1057e:	57fd                	li	a5,-1
   10580:	9a26                	add	s4,s4,s1
   10582:	01540bb3          	add	s7,s0,s5
   10586:	2ef70363          	beq	a4,a5,1086c <_malloc_r+0x4ea>
   1058a:	6785                	lui	a5,0x1
   1058c:	07fd                	addi	a5,a5,31 # 101f <exit-0xf101>
   1058e:	9a3e                	add	s4,s4,a5
   10590:	77fd                	lui	a5,0xfffff
   10592:	00fa7a33          	and	s4,s4,a5
   10596:	85d2                	mv	a1,s4
   10598:	854a                	mv	a0,s2
   1059a:	157000ef          	jal	10ef0 <_sbrk_r>
   1059e:	57fd                	li	a5,-1
   105a0:	8b2a                	mv	s6,a0
   105a2:	36f50363          	beq	a0,a5,10908 <_malloc_r+0x586>
   105a6:	e862                	sd	s8,16(sp)
   105a8:	0d756463          	bltu	a0,s7,10670 <_malloc_r+0x2ee>
   105ac:	2b018c13          	addi	s8,gp,688 # 1b920 <__malloc_current_mallinfo>
   105b0:	000c2703          	lw	a4,0(s8)
   105b4:	0147073b          	addw	a4,a4,s4
   105b8:	00ec2023          	sw	a4,0(s8)
   105bc:	86ba                	mv	a3,a4
   105be:	34ab8963          	beq	s7,a0,10910 <_malloc_r+0x58e>
   105c2:	2201b703          	ld	a4,544(gp) # 1b890 <__malloc_sbrk_base>
   105c6:	57fd                	li	a5,-1
   105c8:	36f70163          	beq	a4,a5,1092a <_malloc_r+0x5a8>
   105cc:	417b07b3          	sub	a5,s6,s7
   105d0:	9fb5                	addw	a5,a5,a3
   105d2:	00fc2023          	sw	a5,0(s8)
   105d6:	00fb7c93          	andi	s9,s6,15
   105da:	2a0c8563          	beqz	s9,10884 <_malloc_r+0x502>
   105de:	419b0b33          	sub	s6,s6,s9
   105e2:	6685                	lui	a3,0x1
   105e4:	0b41                	addi	s6,s6,16
   105e6:	06c1                	addi	a3,a3,16 # 1010 <exit-0xf110>
   105e8:	9a5a                	add	s4,s4,s6
   105ea:	419686b3          	sub	a3,a3,s9
   105ee:	414686b3          	sub	a3,a3,s4
   105f2:	16d2                	slli	a3,a3,0x34
   105f4:	0346db93          	srli	s7,a3,0x34
   105f8:	85de                	mv	a1,s7
   105fa:	854a                	mv	a0,s2
   105fc:	0f5000ef          	jal	10ef0 <_sbrk_r>
   10600:	57fd                	li	a5,-1
   10602:	36f50363          	beq	a0,a5,10968 <_malloc_r+0x5e6>
   10606:	41650533          	sub	a0,a0,s6
   1060a:	01750a33          	add	s4,a0,s7
   1060e:	000b869b          	sext.w	a3,s7
   10612:	000c2703          	lw	a4,0(s8)
   10616:	0169b823          	sd	s6,16(s3)
   1061a:	001a6793          	ori	a5,s4,1
   1061e:	9f35                	addw	a4,a4,a3
   10620:	00fb3423          	sd	a5,8(s6)
   10624:	00ec2023          	sw	a4,0(s8)
   10628:	03340563          	beq	s0,s3,10652 <_malloc_r+0x2d0>
   1062c:	467d                	li	a2,31
   1062e:	27567b63          	bgeu	a2,s5,108a4 <_malloc_r+0x522>
   10632:	6414                	ld	a3,8(s0)
   10634:	fe8a8793          	addi	a5,s5,-24
   10638:	9bc1                	andi	a5,a5,-16
   1063a:	8a85                	andi	a3,a3,1
   1063c:	8edd                	or	a3,a3,a5
   1063e:	e414                	sd	a3,8(s0)
   10640:	45a5                	li	a1,9
   10642:	00f406b3          	add	a3,s0,a5
   10646:	e68c                	sd	a1,8(a3)
   10648:	ea8c                	sd	a1,16(a3)
   1064a:	20f66763          	bltu	a2,a5,10858 <_malloc_r+0x4d6>
   1064e:	008b3783          	ld	a5,8(s6)
   10652:	2401b603          	ld	a2,576(gp) # 1b8b0 <__malloc_max_sbrked_mem>
   10656:	00e67463          	bgeu	a2,a4,1065e <_malloc_r+0x2dc>
   1065a:	24e1b023          	sd	a4,576(gp) # 1b8b0 <__malloc_max_sbrked_mem>
   1065e:	2381b603          	ld	a2,568(gp) # 1b8a8 <__malloc_max_total_mem>
   10662:	00e67463          	bgeu	a2,a4,1066a <_malloc_r+0x2e8>
   10666:	22e1bc23          	sd	a4,568(gp) # 1b8a8 <__malloc_max_total_mem>
   1066a:	6c42                	ld	s8,16(sp)
   1066c:	845a                	mv	s0,s6
   1066e:	a039                	j	1067c <_malloc_r+0x2fa>
   10670:	29340363          	beq	s0,s3,108f6 <_malloc_r+0x574>
   10674:	0109b403          	ld	s0,16(s3)
   10678:	6c42                	ld	s8,16(sp)
   1067a:	641c                	ld	a5,8(s0)
   1067c:	9bf1                	andi	a5,a5,-4
   1067e:	40978733          	sub	a4,a5,s1
   10682:	2297e563          	bltu	a5,s1,108ac <_malloc_r+0x52a>
   10686:	47fd                	li	a5,31
   10688:	22e7d263          	bge	a5,a4,108ac <_malloc_r+0x52a>
   1068c:	7a42                	ld	s4,48(sp)
   1068e:	7b02                	ld	s6,32(sp)
   10690:	6be2                	ld	s7,24(sp)
   10692:	6ca2                	ld	s9,8(sp)
   10694:	0014e793          	ori	a5,s1,1
   10698:	e41c                	sd	a5,8(s0)
   1069a:	94a2                	add	s1,s1,s0
   1069c:	0099b823          	sd	s1,16(s3)
   106a0:	00176713          	ori	a4,a4,1
   106a4:	854a                	mv	a0,s2
   106a6:	e498                	sd	a4,8(s1)
   106a8:	308000ef          	jal	109b0 <__malloc_unlock>
   106ac:	60e6                	ld	ra,88(sp)
   106ae:	01040513          	addi	a0,s0,16
   106b2:	6446                	ld	s0,80(sp)
   106b4:	7aa2                	ld	s5,40(sp)
   106b6:	64a6                	ld	s1,72(sp)
   106b8:	6906                	ld	s2,64(sp)
   106ba:	79e2                	ld	s3,56(sp)
   106bc:	6125                	addi	sp,sp,96
   106be:	8082                	ret
   106c0:	0089b503          	ld	a0,8(s3)
   106c4:	bbe5                	j	104bc <_malloc_r+0x13a>
   106c6:	6810                	ld	a2,16(s0)
   106c8:	97a2                	add	a5,a5,s0
   106ca:	6798                	ld	a4,8(a5)
   106cc:	ee14                	sd	a3,24(a2)
   106ce:	ea90                	sd	a2,16(a3)
   106d0:	00176713          	ori	a4,a4,1
   106d4:	854a                	mv	a0,s2
   106d6:	e798                	sd	a4,8(a5)
   106d8:	2d8000ef          	jal	109b0 <__malloc_unlock>
   106dc:	60e6                	ld	ra,88(sp)
   106de:	01040513          	addi	a0,s0,16
   106e2:	6446                	ld	s0,80(sp)
   106e4:	64a6                	ld	s1,72(sp)
   106e6:	6906                	ld	s2,64(sp)
   106e8:	79e2                	ld	s3,56(sp)
   106ea:	6125                	addi	sp,sp,96
   106ec:	8082                	ret
   106ee:	6f80                	ld	s0,24(a5)
   106f0:	2589                	addiw	a1,a1,2
   106f2:	d68784e3          	beq	a5,s0,1045a <_malloc_r+0xd8>
   106f6:	b1e9                	j	103c0 <_malloc_r+0x3e>
   106f8:	0097d713          	srli	a4,a5,0x9
   106fc:	4691                	li	a3,4
   106fe:	0ee6fc63          	bgeu	a3,a4,107f6 <_malloc_r+0x474>
   10702:	46d1                	li	a3,20
   10704:	1ae6ed63          	bltu	a3,a4,108be <_malloc_r+0x53c>
   10708:	05c7061b          	addiw	a2,a4,92
   1070c:	0016161b          	slliw	a2,a2,0x1
   10710:	060e                	slli	a2,a2,0x3
   10712:	05b7069b          	addiw	a3,a4,91
   10716:	964e                	add	a2,a2,s3
   10718:	6218                	ld	a4,0(a2)
   1071a:	1641                	addi	a2,a2,-16
   1071c:	00e61663          	bne	a2,a4,10728 <_malloc_r+0x3a6>
   10720:	aa89                	j	10872 <_malloc_r+0x4f0>
   10722:	6b18                	ld	a4,16(a4)
   10724:	00e60663          	beq	a2,a4,10730 <_malloc_r+0x3ae>
   10728:	6714                	ld	a3,8(a4)
   1072a:	9af1                	andi	a3,a3,-4
   1072c:	fed7ebe3          	bltu	a5,a3,10722 <_malloc_r+0x3a0>
   10730:	6f10                	ld	a2,24(a4)
   10732:	ec10                	sd	a2,24(s0)
   10734:	e818                	sd	a4,16(s0)
   10736:	ea00                	sd	s0,16(a2)
   10738:	ef00                	sd	s0,24(a4)
   1073a:	b349                	j	104bc <_malloc_r+0x13a>
   1073c:	4751                	li	a4,20
   1073e:	0cf77663          	bgeu	a4,a5,1080a <_malloc_r+0x488>
   10742:	05400713          	li	a4,84
   10746:	18f76a63          	bltu	a4,a5,108da <_malloc_r+0x558>
   1074a:	00c4d793          	srli	a5,s1,0xc
   1074e:	06f7859b          	addiw	a1,a5,111 # fffffffffffff06f <__BSS_END__+0xfffffffffffe31ff>
   10752:	0015961b          	slliw	a2,a1,0x1
   10756:	06e7881b          	addiw	a6,a5,110
   1075a:	060e                	slli	a2,a2,0x3
   1075c:	b9c1                	j	1042c <_malloc_r+0xaa>
   1075e:	2e05                	addiw	t3,t3,1
   10760:	003e7793          	andi	a5,t3,3
   10764:	0541                	addi	a0,a0,16
   10766:	cfdd                	beqz	a5,10824 <_malloc_r+0x4a2>
   10768:	6d1c                	ld	a5,24(a0)
   1076a:	bb49                	j	104fc <_malloc_r+0x17a>
   1076c:	6810                	ld	a2,16(s0)
   1076e:	0014e593          	ori	a1,s1,1
   10772:	e40c                	sd	a1,8(s0)
   10774:	ee1c                	sd	a5,24(a2)
   10776:	eb90                	sd	a2,16(a5)
   10778:	94a2                	add	s1,s1,s0
   1077a:	0299b423          	sd	s1,40(s3)
   1077e:	0299b023          	sd	s1,32(s3)
   10782:	0016e793          	ori	a5,a3,1
   10786:	9722                	add	a4,a4,s0
   10788:	0104bc23          	sd	a6,24(s1)
   1078c:	0104b823          	sd	a6,16(s1)
   10790:	e49c                	sd	a5,8(s1)
   10792:	854a                	mv	a0,s2
   10794:	e314                	sd	a3,0(a4)
   10796:	21a000ef          	jal	109b0 <__malloc_unlock>
   1079a:	01040513          	addi	a0,s0,16
   1079e:	bb69                	j	10538 <_malloc_r+0x1b6>
   107a0:	97a2                	add	a5,a5,s0
   107a2:	6798                	ld	a4,8(a5)
   107a4:	854a                	mv	a0,s2
   107a6:	00176713          	ori	a4,a4,1
   107aa:	e798                	sd	a4,8(a5)
   107ac:	204000ef          	jal	109b0 <__malloc_unlock>
   107b0:	01040513          	addi	a0,s0,16
   107b4:	b351                	j	10538 <_malloc_r+0x1b6>
   107b6:	0014e693          	ori	a3,s1,1
   107ba:	e414                	sd	a3,8(s0)
   107bc:	94a2                	add	s1,s1,s0
   107be:	0299b423          	sd	s1,40(s3)
   107c2:	0299b023          	sd	s1,32(s3)
   107c6:	00176693          	ori	a3,a4,1
   107ca:	97a2                	add	a5,a5,s0
   107cc:	0104bc23          	sd	a6,24(s1)
   107d0:	0104b823          	sd	a6,16(s1)
   107d4:	e494                	sd	a3,8(s1)
   107d6:	854a                	mv	a0,s2
   107d8:	e398                	sd	a4,0(a5)
   107da:	1d6000ef          	jal	109b0 <__malloc_unlock>
   107de:	01040513          	addi	a0,s0,16
   107e2:	bb99                	j	10538 <_malloc_r+0x1b6>
   107e4:	0034d593          	srli	a1,s1,0x3
   107e8:	0015879b          	addiw	a5,a1,1
   107ec:	0017979b          	slliw	a5,a5,0x1
   107f0:	078e                	slli	a5,a5,0x3
   107f2:	2581                	sext.w	a1,a1
   107f4:	be6d                	j	103ae <_malloc_r+0x2c>
   107f6:	0067d713          	srli	a4,a5,0x6
   107fa:	0397061b          	addiw	a2,a4,57
   107fe:	0016161b          	slliw	a2,a2,0x1
   10802:	060e                	slli	a2,a2,0x3
   10804:	0387069b          	addiw	a3,a4,56
   10808:	b739                	j	10716 <_malloc_r+0x394>
   1080a:	05c7859b          	addiw	a1,a5,92
   1080e:	0015961b          	slliw	a2,a1,0x1
   10812:	05b7881b          	addiw	a6,a5,91
   10816:	060e                	slli	a2,a2,0x3
   10818:	b911                	j	1042c <_malloc_r+0xaa>
   1081a:	01033783          	ld	a5,16(t1)
   1081e:	35fd                	addiw	a1,a1,-1
   10820:	18679463          	bne	a5,t1,109a8 <_malloc_r+0x626>
   10824:	0035f793          	andi	a5,a1,3
   10828:	1341                	addi	t1,t1,-16
   1082a:	fbe5                	bnez	a5,1081a <_malloc_r+0x498>
   1082c:	0089b703          	ld	a4,8(s3)
   10830:	fff64793          	not	a5,a2
   10834:	8ff9                	and	a5,a5,a4
   10836:	00f9b423          	sd	a5,8(s3)
   1083a:	0606                	slli	a2,a2,0x1
   1083c:	d0c7ece3          	bltu	a5,a2,10554 <_malloc_r+0x1d2>
   10840:	d0060ae3          	beqz	a2,10554 <_malloc_r+0x1d2>
   10844:	00f67733          	and	a4,a2,a5
   10848:	e711                	bnez	a4,10854 <_malloc_r+0x4d2>
   1084a:	0606                	slli	a2,a2,0x1
   1084c:	00f67733          	and	a4,a2,a5
   10850:	2e11                	addiw	t3,t3,4
   10852:	df65                	beqz	a4,1084a <_malloc_r+0x4c8>
   10854:	85f2                	mv	a1,t3
   10856:	b949                	j	104e8 <_malloc_r+0x166>
   10858:	01040593          	addi	a1,s0,16
   1085c:	854a                	mv	a0,s2
   1085e:	1bf000ef          	jal	1121c <_free_r>
   10862:	000c2703          	lw	a4,0(s8)
   10866:	0109bb03          	ld	s6,16(s3)
   1086a:	b3d5                	j	1064e <_malloc_r+0x2cc>
   1086c:	020a0a13          	addi	s4,s4,32
   10870:	b31d                	j	10596 <_malloc_r+0x214>
   10872:	4026d69b          	sraiw	a3,a3,0x2
   10876:	4785                	li	a5,1
   10878:	00d797b3          	sll	a5,a5,a3
   1087c:	8d5d                	or	a0,a0,a5
   1087e:	00a9b423          	sd	a0,8(s3)
   10882:	bd45                	j	10732 <_malloc_r+0x3b0>
   10884:	014b0bb3          	add	s7,s6,s4
   10888:	41700bb3          	neg	s7,s7
   1088c:	1bd2                	slli	s7,s7,0x34
   1088e:	034bdb93          	srli	s7,s7,0x34
   10892:	85de                	mv	a1,s7
   10894:	854a                	mv	a0,s2
   10896:	65a000ef          	jal	10ef0 <_sbrk_r>
   1089a:	57fd                	li	a5,-1
   1089c:	4681                	li	a3,0
   1089e:	d6f514e3          	bne	a0,a5,10606 <_malloc_r+0x284>
   108a2:	bb85                	j	10612 <_malloc_r+0x290>
   108a4:	6c42                	ld	s8,16(sp)
   108a6:	4785                	li	a5,1
   108a8:	00fb3423          	sd	a5,8(s6)
   108ac:	854a                	mv	a0,s2
   108ae:	102000ef          	jal	109b0 <__malloc_unlock>
   108b2:	7a42                	ld	s4,48(sp)
   108b4:	7aa2                	ld	s5,40(sp)
   108b6:	7b02                	ld	s6,32(sp)
   108b8:	6be2                	ld	s7,24(sp)
   108ba:	6ca2                	ld	s9,8(sp)
   108bc:	b9ad                	j	10536 <_malloc_r+0x1b4>
   108be:	05400693          	li	a3,84
   108c2:	06e6e763          	bltu	a3,a4,10930 <_malloc_r+0x5ae>
   108c6:	00c7d713          	srli	a4,a5,0xc
   108ca:	06f7061b          	addiw	a2,a4,111
   108ce:	0016161b          	slliw	a2,a2,0x1
   108d2:	060e                	slli	a2,a2,0x3
   108d4:	06e7069b          	addiw	a3,a4,110
   108d8:	bd3d                	j	10716 <_malloc_r+0x394>
   108da:	15400713          	li	a4,340
   108de:	06f76763          	bltu	a4,a5,1094c <_malloc_r+0x5ca>
   108e2:	00f4d793          	srli	a5,s1,0xf
   108e6:	0787859b          	addiw	a1,a5,120
   108ea:	0015961b          	slliw	a2,a1,0x1
   108ee:	0777881b          	addiw	a6,a5,119
   108f2:	060e                	slli	a2,a2,0x3
   108f4:	be25                	j	1042c <_malloc_r+0xaa>
   108f6:	2b018c13          	addi	s8,gp,688 # 1b920 <__malloc_current_mallinfo>
   108fa:	000c2683          	lw	a3,0(s8)
   108fe:	014686bb          	addw	a3,a3,s4
   10902:	00dc2023          	sw	a3,0(s8)
   10906:	b975                	j	105c2 <_malloc_r+0x240>
   10908:	0109b403          	ld	s0,16(s3)
   1090c:	641c                	ld	a5,8(s0)
   1090e:	b3bd                	j	1067c <_malloc_r+0x2fa>
   10910:	03451793          	slli	a5,a0,0x34
   10914:	ca0797e3          	bnez	a5,105c2 <_malloc_r+0x240>
   10918:	0109bb03          	ld	s6,16(s3)
   1091c:	014a87b3          	add	a5,s5,s4
   10920:	0017e793          	ori	a5,a5,1
   10924:	00fb3423          	sd	a5,8(s6)
   10928:	b32d                	j	10652 <_malloc_r+0x2d0>
   1092a:	2361b023          	sd	s6,544(gp) # 1b890 <__malloc_sbrk_base>
   1092e:	b165                	j	105d6 <_malloc_r+0x254>
   10930:	15400693          	li	a3,340
   10934:	04e6e063          	bltu	a3,a4,10974 <_malloc_r+0x5f2>
   10938:	00f7d713          	srli	a4,a5,0xf
   1093c:	0787061b          	addiw	a2,a4,120
   10940:	0016161b          	slliw	a2,a2,0x1
   10944:	060e                	slli	a2,a2,0x3
   10946:	0777069b          	addiw	a3,a4,119
   1094a:	b3f1                	j	10716 <_malloc_r+0x394>
   1094c:	55400713          	li	a4,1364
   10950:	04f76063          	bltu	a4,a5,10990 <_malloc_r+0x60e>
   10954:	0124d793          	srli	a5,s1,0x12
   10958:	07d7859b          	addiw	a1,a5,125
   1095c:	0015961b          	slliw	a2,a1,0x1
   10960:	07c7881b          	addiw	a6,a5,124
   10964:	060e                	slli	a2,a2,0x3
   10966:	b4d9                	j	1042c <_malloc_r+0xaa>
   10968:	1cc1                	addi	s9,s9,-16
   1096a:	9a66                	add	s4,s4,s9
   1096c:	416a0a33          	sub	s4,s4,s6
   10970:	4681                	li	a3,0
   10972:	b145                	j	10612 <_malloc_r+0x290>
   10974:	55400693          	li	a3,1364
   10978:	02e6e363          	bltu	a3,a4,1099e <_malloc_r+0x61c>
   1097c:	0127d713          	srli	a4,a5,0x12
   10980:	07d7061b          	addiw	a2,a4,125
   10984:	0016161b          	slliw	a2,a2,0x1
   10988:	060e                	slli	a2,a2,0x3
   1098a:	07c7069b          	addiw	a3,a4,124
   1098e:	b361                	j	10716 <_malloc_r+0x394>
   10990:	7f000613          	li	a2,2032
   10994:	07f00593          	li	a1,127
   10998:	07e00813          	li	a6,126
   1099c:	bc41                	j	1042c <_malloc_r+0xaa>
   1099e:	7f000613          	li	a2,2032
   109a2:	07e00693          	li	a3,126
   109a6:	bb85                	j	10716 <_malloc_r+0x394>
   109a8:	0089b783          	ld	a5,8(s3)
   109ac:	b579                	j	1083a <_malloc_r+0x4b8>

00000000000109ae <__malloc_lock>:
   109ae:	8082                	ret

00000000000109b0 <__malloc_unlock>:
   109b0:	8082                	ret

00000000000109b2 <__fp_lock>:
   109b2:	4501                	li	a0,0
   109b4:	8082                	ret

00000000000109b6 <stdio_exit_handler>:
   109b6:	65cd                	lui	a1,0x13
   109b8:	e8818613          	addi	a2,gp,-376 # 1b4f8 <__sglue>
   109bc:	61a58593          	addi	a1,a1,1562 # 1361a <_fclose_r>
   109c0:	ea018513          	addi	a0,gp,-352 # 1b510 <_impure_data>
   109c4:	ac81                	j	10c14 <_fwalk_sglue>

00000000000109c6 <cleanup_stdio>:
   109c6:	650c                	ld	a1,8(a0)
   109c8:	1141                	addi	sp,sp,-16
   109ca:	e022                	sd	s0,0(sp)
   109cc:	e406                	sd	ra,8(sp)
   109ce:	2d818793          	addi	a5,gp,728 # 1b948 <__sf>
   109d2:	842a                	mv	s0,a0
   109d4:	00f58463          	beq	a1,a5,109dc <cleanup_stdio+0x16>
   109d8:	443020ef          	jal	1361a <_fclose_r>
   109dc:	680c                	ld	a1,16(s0)
   109de:	38818793          	addi	a5,gp,904 # 1b9f8 <__sf+0xb0>
   109e2:	00f58563          	beq	a1,a5,109ec <cleanup_stdio+0x26>
   109e6:	8522                	mv	a0,s0
   109e8:	433020ef          	jal	1361a <_fclose_r>
   109ec:	6c0c                	ld	a1,24(s0)
   109ee:	43818793          	addi	a5,gp,1080 # 1baa8 <__sf+0x160>
   109f2:	00f58863          	beq	a1,a5,10a02 <cleanup_stdio+0x3c>
   109f6:	8522                	mv	a0,s0
   109f8:	6402                	ld	s0,0(sp)
   109fa:	60a2                	ld	ra,8(sp)
   109fc:	0141                	addi	sp,sp,16
   109fe:	41d0206f          	j	1361a <_fclose_r>
   10a02:	60a2                	ld	ra,8(sp)
   10a04:	6402                	ld	s0,0(sp)
   10a06:	0141                	addi	sp,sp,16
   10a08:	8082                	ret

0000000000010a0a <__fp_unlock>:
   10a0a:	4501                	li	a0,0
   10a0c:	8082                	ret

0000000000010a0e <global_stdio_init.part.0>:
   10a0e:	7179                	addi	sp,sp,-48
   10a10:	f022                	sd	s0,32(sp)
   10a12:	67c5                	lui	a5,0x11
   10a14:	2d818413          	addi	s0,gp,728 # 1b948 <__sf>
   10a18:	f406                	sd	ra,40(sp)
   10a1a:	ec26                	sd	s1,24(sp)
   10a1c:	e84a                	sd	s2,16(sp)
   10a1e:	e44e                	sd	s3,8(sp)
   10a20:	e052                	sd	s4,0(sp)
   10a22:	4711                	li	a4,4
   10a24:	9b678793          	addi	a5,a5,-1610 # 109b6 <stdio_exit_handler>
   10a28:	4621                	li	a2,8
   10a2a:	4581                	li	a1,0
   10a2c:	37c18513          	addi	a0,gp,892 # 1b9ec <__sf+0xa4>
   10a30:	24f1b823          	sd	a5,592(gp) # 1b8c0 <__stdio_exit_handler>
   10a34:	c818                	sw	a4,16(s0)
   10a36:	00043023          	sd	zero,0(s0)
   10a3a:	00043423          	sd	zero,8(s0)
   10a3e:	0a042623          	sw	zero,172(s0)
   10a42:	00043c23          	sd	zero,24(s0)
   10a46:	02042023          	sw	zero,32(s0)
   10a4a:	02042423          	sw	zero,40(s0)
   10a4e:	57e000ef          	jal	10fcc <memset>
   10a52:	67c1                	lui	a5,0x10
   10a54:	6a45                	lui	s4,0x11
   10a56:	69c5                	lui	s3,0x11
   10a58:	6945                	lui	s2,0x11
   10a5a:	64c5                	lui	s1,0x11
   10a5c:	ceaa0a13          	addi	s4,s4,-790 # 10cea <__sread>
   10a60:	d2698993          	addi	s3,s3,-730 # 10d26 <__swrite>
   10a64:	d7890913          	addi	s2,s2,-648 # 10d78 <__sseek>
   10a68:	db648493          	addi	s1,s1,-586 # 10db6 <__sclose>
   10a6c:	07a5                	addi	a5,a5,9 # 10009 <exit-0x117>
   10a6e:	4621                	li	a2,8
   10a70:	4581                	li	a1,0
   10a72:	42c18513          	addi	a0,gp,1068 # 1ba9c <__sf+0x154>
   10a76:	0cf42023          	sw	a5,192(s0)
   10a7a:	03443c23          	sd	s4,56(s0)
   10a7e:	05343023          	sd	s3,64(s0)
   10a82:	05243423          	sd	s2,72(s0)
   10a86:	e824                	sd	s1,80(s0)
   10a88:	f800                	sd	s0,48(s0)
   10a8a:	0a043823          	sd	zero,176(s0)
   10a8e:	0a043c23          	sd	zero,184(s0)
   10a92:	14042e23          	sw	zero,348(s0)
   10a96:	0c043423          	sd	zero,200(s0)
   10a9a:	0c042823          	sw	zero,208(s0)
   10a9e:	0c042c23          	sw	zero,216(s0)
   10aa2:	52a000ef          	jal	10fcc <memset>
   10aa6:	000207b7          	lui	a5,0x20
   10aaa:	07c9                	addi	a5,a5,18 # 20012 <__BSS_END__+0x41a2>
   10aac:	38818713          	addi	a4,gp,904 # 1b9f8 <__sf+0xb0>
   10ab0:	4dc18513          	addi	a0,gp,1244 # 1bb4c <__sf+0x204>
   10ab4:	4621                	li	a2,8
   10ab6:	4581                	li	a1,0
   10ab8:	0f443423          	sd	s4,232(s0)
   10abc:	0f343823          	sd	s3,240(s0)
   10ac0:	0f243c23          	sd	s2,248(s0)
   10ac4:	10943023          	sd	s1,256(s0)
   10ac8:	16f42823          	sw	a5,368(s0)
   10acc:	16043023          	sd	zero,352(s0)
   10ad0:	16043423          	sd	zero,360(s0)
   10ad4:	20042623          	sw	zero,524(s0)
   10ad8:	16043c23          	sd	zero,376(s0)
   10adc:	18042023          	sw	zero,384(s0)
   10ae0:	18042423          	sw	zero,392(s0)
   10ae4:	f078                	sd	a4,224(s0)
   10ae6:	4e6000ef          	jal	10fcc <memset>
   10aea:	43818793          	addi	a5,gp,1080 # 1baa8 <__sf+0x160>
   10aee:	19443c23          	sd	s4,408(s0)
   10af2:	1b343023          	sd	s3,416(s0)
   10af6:	1b243423          	sd	s2,424(s0)
   10afa:	1a943823          	sd	s1,432(s0)
   10afe:	70a2                	ld	ra,40(sp)
   10b00:	18f43823          	sd	a5,400(s0)
   10b04:	7402                	ld	s0,32(sp)
   10b06:	64e2                	ld	s1,24(sp)
   10b08:	6942                	ld	s2,16(sp)
   10b0a:	69a2                	ld	s3,8(sp)
   10b0c:	6a02                	ld	s4,0(sp)
   10b0e:	6145                	addi	sp,sp,48
   10b10:	8082                	ret

0000000000010b12 <__sfp>:
   10b12:	2501b783          	ld	a5,592(gp) # 1b8c0 <__stdio_exit_handler>
   10b16:	7179                	addi	sp,sp,-48
   10b18:	e84a                	sd	s2,16(sp)
   10b1a:	f406                	sd	ra,40(sp)
   10b1c:	f022                	sd	s0,32(sp)
   10b1e:	ec26                	sd	s1,24(sp)
   10b20:	e44e                	sd	s3,8(sp)
   10b22:	892a                	mv	s2,a0
   10b24:	c7c5                	beqz	a5,10bcc <__sfp+0xba>
   10b26:	e8818493          	addi	s1,gp,-376 # 1b4f8 <__sglue>
   10b2a:	0b000993          	li	s3,176
   10b2e:	4498                	lw	a4,8(s1)
   10b30:	6880                	ld	s0,16(s1)
   10b32:	06e05463          	blez	a4,10b9a <__sfp+0x88>
   10b36:	1702                	slli	a4,a4,0x20
   10b38:	9301                	srli	a4,a4,0x20
   10b3a:	03370733          	mul	a4,a4,s3
   10b3e:	9722                	add	a4,a4,s0
   10b40:	a029                	j	10b4a <__sfp+0x38>
   10b42:	0b040413          	addi	s0,s0,176
   10b46:	04e40a63          	beq	s0,a4,10b9a <__sfp+0x88>
   10b4a:	01041783          	lh	a5,16(s0)
   10b4e:	fbf5                	bnez	a5,10b42 <__sfp+0x30>
   10b50:	77c1                	lui	a5,0xffff0
   10b52:	0785                	addi	a5,a5,1 # ffffffffffff0001 <__BSS_END__+0xfffffffffffd4191>
   10b54:	0a042623          	sw	zero,172(s0)
   10b58:	00043023          	sd	zero,0(s0)
   10b5c:	00043423          	sd	zero,8(s0)
   10b60:	00043c23          	sd	zero,24(s0)
   10b64:	02042023          	sw	zero,32(s0)
   10b68:	02042423          	sw	zero,40(s0)
   10b6c:	c81c                	sw	a5,16(s0)
   10b6e:	4621                	li	a2,8
   10b70:	4581                	li	a1,0
   10b72:	0a440513          	addi	a0,s0,164
   10b76:	456000ef          	jal	10fcc <memset>
   10b7a:	04043c23          	sd	zero,88(s0)
   10b7e:	06042023          	sw	zero,96(s0)
   10b82:	06043c23          	sd	zero,120(s0)
   10b86:	08042023          	sw	zero,128(s0)
   10b8a:	70a2                	ld	ra,40(sp)
   10b8c:	8522                	mv	a0,s0
   10b8e:	7402                	ld	s0,32(sp)
   10b90:	64e2                	ld	s1,24(sp)
   10b92:	6942                	ld	s2,16(sp)
   10b94:	69a2                	ld	s3,8(sp)
   10b96:	6145                	addi	sp,sp,48
   10b98:	8082                	ret
   10b9a:	6080                	ld	s0,0(s1)
   10b9c:	c019                	beqz	s0,10ba2 <__sfp+0x90>
   10b9e:	84a2                	mv	s1,s0
   10ba0:	b779                	j	10b2e <__sfp+0x1c>
   10ba2:	2d800593          	li	a1,728
   10ba6:	854a                	mv	a0,s2
   10ba8:	fdaff0ef          	jal	10382 <_malloc_r>
   10bac:	842a                	mv	s0,a0
   10bae:	c115                	beqz	a0,10bd2 <__sfp+0xc0>
   10bb0:	4791                	li	a5,4
   10bb2:	0561                	addi	a0,a0,24
   10bb4:	00043023          	sd	zero,0(s0)
   10bb8:	c41c                	sw	a5,8(s0)
   10bba:	e808                	sd	a0,16(s0)
   10bbc:	2c000613          	li	a2,704
   10bc0:	4581                	li	a1,0
   10bc2:	40a000ef          	jal	10fcc <memset>
   10bc6:	e080                	sd	s0,0(s1)
   10bc8:	84a2                	mv	s1,s0
   10bca:	b795                	j	10b2e <__sfp+0x1c>
   10bcc:	e43ff0ef          	jal	10a0e <global_stdio_init.part.0>
   10bd0:	bf99                	j	10b26 <__sfp+0x14>
   10bd2:	0004b023          	sd	zero,0(s1)
   10bd6:	47b1                	li	a5,12
   10bd8:	00f92023          	sw	a5,0(s2)
   10bdc:	b77d                	j	10b8a <__sfp+0x78>

0000000000010bde <__sinit>:
   10bde:	653c                	ld	a5,72(a0)
   10be0:	c391                	beqz	a5,10be4 <__sinit+0x6>
   10be2:	8082                	ret
   10be4:	67c5                	lui	a5,0x11
   10be6:	2501b703          	ld	a4,592(gp) # 1b8c0 <__stdio_exit_handler>
   10bea:	9c678793          	addi	a5,a5,-1594 # 109c6 <cleanup_stdio>
   10bee:	e53c                	sd	a5,72(a0)
   10bf0:	fb6d                	bnez	a4,10be2 <__sinit+0x4>
   10bf2:	bd31                	j	10a0e <global_stdio_init.part.0>

0000000000010bf4 <__sfp_lock_acquire>:
   10bf4:	8082                	ret

0000000000010bf6 <__sfp_lock_release>:
   10bf6:	8082                	ret

0000000000010bf8 <__fp_lock_all>:
   10bf8:	65c5                	lui	a1,0x11
   10bfa:	e8818613          	addi	a2,gp,-376 # 1b4f8 <__sglue>
   10bfe:	9b258593          	addi	a1,a1,-1614 # 109b2 <__fp_lock>
   10c02:	4501                	li	a0,0
   10c04:	a801                	j	10c14 <_fwalk_sglue>

0000000000010c06 <__fp_unlock_all>:
   10c06:	65c5                	lui	a1,0x11
   10c08:	e8818613          	addi	a2,gp,-376 # 1b4f8 <__sglue>
   10c0c:	a0a58593          	addi	a1,a1,-1526 # 10a0a <__fp_unlock>
   10c10:	4501                	li	a0,0
   10c12:	a009                	j	10c14 <_fwalk_sglue>

0000000000010c14 <_fwalk_sglue>:
   10c14:	715d                	addi	sp,sp,-80
   10c16:	f84a                	sd	s2,48(sp)
   10c18:	f44e                	sd	s3,40(sp)
   10c1a:	f052                	sd	s4,32(sp)
   10c1c:	ec56                	sd	s5,24(sp)
   10c1e:	e85a                	sd	s6,16(sp)
   10c20:	e45e                	sd	s7,8(sp)
   10c22:	e062                	sd	s8,0(sp)
   10c24:	e486                	sd	ra,72(sp)
   10c26:	e0a2                	sd	s0,64(sp)
   10c28:	fc26                	sd	s1,56(sp)
   10c2a:	8a2a                	mv	s4,a0
   10c2c:	8b2e                	mv	s6,a1
   10c2e:	89b2                	mv	s3,a2
   10c30:	4901                	li	s2,0
   10c32:	0b000b93          	li	s7,176
   10c36:	4c05                	li	s8,1
   10c38:	5afd                	li	s5,-1
   10c3a:	0089a483          	lw	s1,8(s3)
   10c3e:	0109b403          	ld	s0,16(s3)
   10c42:	02905963          	blez	s1,10c74 <_fwalk_sglue+0x60>
   10c46:	1482                	slli	s1,s1,0x20
   10c48:	9081                	srli	s1,s1,0x20
   10c4a:	037484b3          	mul	s1,s1,s7
   10c4e:	94a2                	add	s1,s1,s0
   10c50:	01045783          	lhu	a5,16(s0)
   10c54:	00fc7c63          	bgeu	s8,a5,10c6c <_fwalk_sglue+0x58>
   10c58:	01241783          	lh	a5,18(s0)
   10c5c:	85a2                	mv	a1,s0
   10c5e:	8552                	mv	a0,s4
   10c60:	01578663          	beq	a5,s5,10c6c <_fwalk_sglue+0x58>
   10c64:	9b02                	jalr	s6
   10c66:	01256933          	or	s2,a0,s2
   10c6a:	2901                	sext.w	s2,s2
   10c6c:	0b040413          	addi	s0,s0,176
   10c70:	fe9410e3          	bne	s0,s1,10c50 <_fwalk_sglue+0x3c>
   10c74:	0009b983          	ld	s3,0(s3)
   10c78:	fc0991e3          	bnez	s3,10c3a <_fwalk_sglue+0x26>
   10c7c:	60a6                	ld	ra,72(sp)
   10c7e:	6406                	ld	s0,64(sp)
   10c80:	74e2                	ld	s1,56(sp)
   10c82:	79a2                	ld	s3,40(sp)
   10c84:	7a02                	ld	s4,32(sp)
   10c86:	6ae2                	ld	s5,24(sp)
   10c88:	6b42                	ld	s6,16(sp)
   10c8a:	6ba2                	ld	s7,8(sp)
   10c8c:	6c02                	ld	s8,0(sp)
   10c8e:	854a                	mv	a0,s2
   10c90:	7942                	ld	s2,48(sp)
   10c92:	6161                	addi	sp,sp,80
   10c94:	8082                	ret

0000000000010c96 <_printf_r>:
   10c96:	715d                	addi	sp,sp,-80
   10c98:	8e2e                	mv	t3,a1
   10c9a:	690c                	ld	a1,16(a0)
   10c9c:	02010313          	addi	t1,sp,32
   10ca0:	f032                	sd	a2,32(sp)
   10ca2:	f436                	sd	a3,40(sp)
   10ca4:	8672                	mv	a2,t3
   10ca6:	869a                	mv	a3,t1
   10ca8:	ec06                	sd	ra,24(sp)
   10caa:	f83a                	sd	a4,48(sp)
   10cac:	fc3e                	sd	a5,56(sp)
   10cae:	e0c2                	sd	a6,64(sp)
   10cb0:	e4c6                	sd	a7,72(sp)
   10cb2:	e41a                	sd	t1,8(sp)
   10cb4:	7ac000ef          	jal	11460 <_vfprintf_r>
   10cb8:	60e2                	ld	ra,24(sp)
   10cba:	6161                	addi	sp,sp,80
   10cbc:	8082                	ret

0000000000010cbe <printf>:
   10cbe:	2301b303          	ld	t1,560(gp) # 1b8a0 <_impure_ptr>
   10cc2:	711d                	addi	sp,sp,-96
   10cc4:	f832                	sd	a2,48(sp)
   10cc6:	fc36                	sd	a3,56(sp)
   10cc8:	f42e                	sd	a1,40(sp)
   10cca:	e0ba                	sd	a4,64(sp)
   10ccc:	e4be                	sd	a5,72(sp)
   10cce:	e8c2                	sd	a6,80(sp)
   10cd0:	ecc6                	sd	a7,88(sp)
   10cd2:	01033583          	ld	a1,16(t1)
   10cd6:	1034                	addi	a3,sp,40
   10cd8:	862a                	mv	a2,a0
   10cda:	851a                	mv	a0,t1
   10cdc:	ec06                	sd	ra,24(sp)
   10cde:	e436                	sd	a3,8(sp)
   10ce0:	780000ef          	jal	11460 <_vfprintf_r>
   10ce4:	60e2                	ld	ra,24(sp)
   10ce6:	6125                	addi	sp,sp,96
   10ce8:	8082                	ret

0000000000010cea <__sread>:
   10cea:	1141                	addi	sp,sp,-16
   10cec:	e022                	sd	s0,0(sp)
   10cee:	842e                	mv	s0,a1
   10cf0:	01259583          	lh	a1,18(a1)
   10cf4:	e406                	sd	ra,8(sp)
   10cf6:	1be000ef          	jal	10eb4 <_read_r>
   10cfa:	00054963          	bltz	a0,10d0c <__sread+0x22>
   10cfe:	685c                	ld	a5,144(s0)
   10d00:	60a2                	ld	ra,8(sp)
   10d02:	97aa                	add	a5,a5,a0
   10d04:	e85c                	sd	a5,144(s0)
   10d06:	6402                	ld	s0,0(sp)
   10d08:	0141                	addi	sp,sp,16
   10d0a:	8082                	ret
   10d0c:	01045783          	lhu	a5,16(s0)
   10d10:	777d                	lui	a4,0xfffff
   10d12:	177d                	addi	a4,a4,-1 # ffffffffffffefff <__BSS_END__+0xfffffffffffe318f>
   10d14:	8ff9                	and	a5,a5,a4
   10d16:	60a2                	ld	ra,8(sp)
   10d18:	00f41823          	sh	a5,16(s0)
   10d1c:	6402                	ld	s0,0(sp)
   10d1e:	0141                	addi	sp,sp,16
   10d20:	8082                	ret

0000000000010d22 <__seofread>:
   10d22:	4501                	li	a0,0
   10d24:	8082                	ret

0000000000010d26 <__swrite>:
   10d26:	01059783          	lh	a5,16(a1)
   10d2a:	7179                	addi	sp,sp,-48
   10d2c:	f022                	sd	s0,32(sp)
   10d2e:	ec26                	sd	s1,24(sp)
   10d30:	e84a                	sd	s2,16(sp)
   10d32:	e44e                	sd	s3,8(sp)
   10d34:	f406                	sd	ra,40(sp)
   10d36:	1007f713          	andi	a4,a5,256
   10d3a:	842e                	mv	s0,a1
   10d3c:	8932                	mv	s2,a2
   10d3e:	89b6                	mv	s3,a3
   10d40:	84aa                	mv	s1,a0
   10d42:	e315                	bnez	a4,10d66 <__swrite+0x40>
   10d44:	777d                	lui	a4,0xfffff
   10d46:	177d                	addi	a4,a4,-1 # ffffffffffffefff <__BSS_END__+0xfffffffffffe318f>
   10d48:	8ff9                	and	a5,a5,a4
   10d4a:	01241583          	lh	a1,18(s0)
   10d4e:	00f41823          	sh	a5,16(s0)
   10d52:	7402                	ld	s0,32(sp)
   10d54:	70a2                	ld	ra,40(sp)
   10d56:	86ce                	mv	a3,s3
   10d58:	864a                	mv	a2,s2
   10d5a:	69a2                	ld	s3,8(sp)
   10d5c:	6942                	ld	s2,16(sp)
   10d5e:	8526                	mv	a0,s1
   10d60:	64e2                	ld	s1,24(sp)
   10d62:	6145                	addi	sp,sp,48
   10d64:	a2c9                	j	10f26 <_write_r>
   10d66:	01259583          	lh	a1,18(a1)
   10d6a:	4689                	li	a3,2
   10d6c:	4601                	li	a2,0
   10d6e:	10a000ef          	jal	10e78 <_lseek_r>
   10d72:	01041783          	lh	a5,16(s0)
   10d76:	b7f9                	j	10d44 <__swrite+0x1e>

0000000000010d78 <__sseek>:
   10d78:	1141                	addi	sp,sp,-16
   10d7a:	e022                	sd	s0,0(sp)
   10d7c:	842e                	mv	s0,a1
   10d7e:	01259583          	lh	a1,18(a1)
   10d82:	e406                	sd	ra,8(sp)
   10d84:	0f4000ef          	jal	10e78 <_lseek_r>
   10d88:	577d                	li	a4,-1
   10d8a:	01041783          	lh	a5,16(s0)
   10d8e:	00e50b63          	beq	a0,a4,10da4 <__sseek+0x2c>
   10d92:	6705                	lui	a4,0x1
   10d94:	8fd9                	or	a5,a5,a4
   10d96:	60a2                	ld	ra,8(sp)
   10d98:	e848                	sd	a0,144(s0)
   10d9a:	00f41823          	sh	a5,16(s0)
   10d9e:	6402                	ld	s0,0(sp)
   10da0:	0141                	addi	sp,sp,16
   10da2:	8082                	ret
   10da4:	777d                	lui	a4,0xfffff
   10da6:	177d                	addi	a4,a4,-1 # ffffffffffffefff <__BSS_END__+0xfffffffffffe318f>
   10da8:	8ff9                	and	a5,a5,a4
   10daa:	60a2                	ld	ra,8(sp)
   10dac:	00f41823          	sh	a5,16(s0)
   10db0:	6402                	ld	s0,0(sp)
   10db2:	0141                	addi	sp,sp,16
   10db4:	8082                	ret

0000000000010db6 <__sclose>:
   10db6:	01259583          	lh	a1,18(a1)
   10dba:	a009                	j	10dbc <_close_r>

0000000000010dbc <_close_r>:
   10dbc:	1101                	addi	sp,sp,-32
   10dbe:	e822                	sd	s0,16(sp)
   10dc0:	e426                	sd	s1,8(sp)
   10dc2:	842a                	mv	s0,a0
   10dc4:	852e                	mv	a0,a1
   10dc6:	ec06                	sd	ra,24(sp)
   10dc8:	2401ac23          	sw	zero,600(gp) # 1b8c8 <errno>
   10dcc:	318070ef          	jal	180e4 <_close>
   10dd0:	57fd                	li	a5,-1
   10dd2:	00f50763          	beq	a0,a5,10de0 <_close_r+0x24>
   10dd6:	60e2                	ld	ra,24(sp)
   10dd8:	6442                	ld	s0,16(sp)
   10dda:	64a2                	ld	s1,8(sp)
   10ddc:	6105                	addi	sp,sp,32
   10dde:	8082                	ret
   10de0:	2581a783          	lw	a5,600(gp) # 1b8c8 <errno>
   10de4:	dbed                	beqz	a5,10dd6 <_close_r+0x1a>
   10de6:	60e2                	ld	ra,24(sp)
   10de8:	c01c                	sw	a5,0(s0)
   10dea:	6442                	ld	s0,16(sp)
   10dec:	64a2                	ld	s1,8(sp)
   10dee:	6105                	addi	sp,sp,32
   10df0:	8082                	ret

0000000000010df2 <_reclaim_reent>:
   10df2:	2301b783          	ld	a5,560(gp) # 1b8a0 <_impure_ptr>
   10df6:	08a78063          	beq	a5,a0,10e76 <_reclaim_reent+0x84>
   10dfa:	752c                	ld	a1,104(a0)
   10dfc:	7179                	addi	sp,sp,-48
   10dfe:	ec26                	sd	s1,24(sp)
   10e00:	f406                	sd	ra,40(sp)
   10e02:	f022                	sd	s0,32(sp)
   10e04:	84aa                	mv	s1,a0
   10e06:	c98d                	beqz	a1,10e38 <_reclaim_reent+0x46>
   10e08:	e84a                	sd	s2,16(sp)
   10e0a:	e44e                	sd	s3,8(sp)
   10e0c:	4901                	li	s2,0
   10e0e:	20000993          	li	s3,512
   10e12:	012587b3          	add	a5,a1,s2
   10e16:	6380                	ld	s0,0(a5)
   10e18:	c801                	beqz	s0,10e28 <_reclaim_reent+0x36>
   10e1a:	85a2                	mv	a1,s0
   10e1c:	6000                	ld	s0,0(s0)
   10e1e:	8526                	mv	a0,s1
   10e20:	3fc000ef          	jal	1121c <_free_r>
   10e24:	f87d                	bnez	s0,10e1a <_reclaim_reent+0x28>
   10e26:	74ac                	ld	a1,104(s1)
   10e28:	0921                	addi	s2,s2,8
   10e2a:	ff3914e3          	bne	s2,s3,10e12 <_reclaim_reent+0x20>
   10e2e:	8526                	mv	a0,s1
   10e30:	3ec000ef          	jal	1121c <_free_r>
   10e34:	6942                	ld	s2,16(sp)
   10e36:	69a2                	ld	s3,8(sp)
   10e38:	68ac                	ld	a1,80(s1)
   10e3a:	c581                	beqz	a1,10e42 <_reclaim_reent+0x50>
   10e3c:	8526                	mv	a0,s1
   10e3e:	3de000ef          	jal	1121c <_free_r>
   10e42:	70a0                	ld	s0,96(s1)
   10e44:	c419                	beqz	s0,10e52 <_reclaim_reent+0x60>
   10e46:	85a2                	mv	a1,s0
   10e48:	6000                	ld	s0,0(s0)
   10e4a:	8526                	mv	a0,s1
   10e4c:	3d0000ef          	jal	1121c <_free_r>
   10e50:	f87d                	bnez	s0,10e46 <_reclaim_reent+0x54>
   10e52:	7cac                	ld	a1,120(s1)
   10e54:	c581                	beqz	a1,10e5c <_reclaim_reent+0x6a>
   10e56:	8526                	mv	a0,s1
   10e58:	3c4000ef          	jal	1121c <_free_r>
   10e5c:	64bc                	ld	a5,72(s1)
   10e5e:	c799                	beqz	a5,10e6c <_reclaim_reent+0x7a>
   10e60:	7402                	ld	s0,32(sp)
   10e62:	70a2                	ld	ra,40(sp)
   10e64:	8526                	mv	a0,s1
   10e66:	64e2                	ld	s1,24(sp)
   10e68:	6145                	addi	sp,sp,48
   10e6a:	8782                	jr	a5
   10e6c:	70a2                	ld	ra,40(sp)
   10e6e:	7402                	ld	s0,32(sp)
   10e70:	64e2                	ld	s1,24(sp)
   10e72:	6145                	addi	sp,sp,48
   10e74:	8082                	ret
   10e76:	8082                	ret

0000000000010e78 <_lseek_r>:
   10e78:	1101                	addi	sp,sp,-32
   10e7a:	872e                	mv	a4,a1
   10e7c:	e822                	sd	s0,16(sp)
   10e7e:	e426                	sd	s1,8(sp)
   10e80:	85b2                	mv	a1,a2
   10e82:	842a                	mv	s0,a0
   10e84:	8636                	mv	a2,a3
   10e86:	853a                	mv	a0,a4
   10e88:	ec06                	sd	ra,24(sp)
   10e8a:	2401ac23          	sw	zero,600(gp) # 1b8c8 <errno>
   10e8e:	322070ef          	jal	181b0 <_lseek>
   10e92:	57fd                	li	a5,-1
   10e94:	00f50763          	beq	a0,a5,10ea2 <_lseek_r+0x2a>
   10e98:	60e2                	ld	ra,24(sp)
   10e9a:	6442                	ld	s0,16(sp)
   10e9c:	64a2                	ld	s1,8(sp)
   10e9e:	6105                	addi	sp,sp,32
   10ea0:	8082                	ret
   10ea2:	2581a783          	lw	a5,600(gp) # 1b8c8 <errno>
   10ea6:	dbed                	beqz	a5,10e98 <_lseek_r+0x20>
   10ea8:	60e2                	ld	ra,24(sp)
   10eaa:	c01c                	sw	a5,0(s0)
   10eac:	6442                	ld	s0,16(sp)
   10eae:	64a2                	ld	s1,8(sp)
   10eb0:	6105                	addi	sp,sp,32
   10eb2:	8082                	ret

0000000000010eb4 <_read_r>:
   10eb4:	1101                	addi	sp,sp,-32
   10eb6:	872e                	mv	a4,a1
   10eb8:	e822                	sd	s0,16(sp)
   10eba:	e426                	sd	s1,8(sp)
   10ebc:	85b2                	mv	a1,a2
   10ebe:	842a                	mv	s0,a0
   10ec0:	8636                	mv	a2,a3
   10ec2:	853a                	mv	a0,a4
   10ec4:	ec06                	sd	ra,24(sp)
   10ec6:	2401ac23          	sw	zero,600(gp) # 1b8c8 <errno>
   10eca:	312070ef          	jal	181dc <_read>
   10ece:	57fd                	li	a5,-1
   10ed0:	00f50763          	beq	a0,a5,10ede <_read_r+0x2a>
   10ed4:	60e2                	ld	ra,24(sp)
   10ed6:	6442                	ld	s0,16(sp)
   10ed8:	64a2                	ld	s1,8(sp)
   10eda:	6105                	addi	sp,sp,32
   10edc:	8082                	ret
   10ede:	2581a783          	lw	a5,600(gp) # 1b8c8 <errno>
   10ee2:	dbed                	beqz	a5,10ed4 <_read_r+0x20>
   10ee4:	60e2                	ld	ra,24(sp)
   10ee6:	c01c                	sw	a5,0(s0)
   10ee8:	6442                	ld	s0,16(sp)
   10eea:	64a2                	ld	s1,8(sp)
   10eec:	6105                	addi	sp,sp,32
   10eee:	8082                	ret

0000000000010ef0 <_sbrk_r>:
   10ef0:	1101                	addi	sp,sp,-32
   10ef2:	e822                	sd	s0,16(sp)
   10ef4:	e426                	sd	s1,8(sp)
   10ef6:	842a                	mv	s0,a0
   10ef8:	852e                	mv	a0,a1
   10efa:	ec06                	sd	ra,24(sp)
   10efc:	2401ac23          	sw	zero,600(gp) # 1b8c8 <errno>
   10f00:	308070ef          	jal	18208 <_sbrk>
   10f04:	57fd                	li	a5,-1
   10f06:	00f50763          	beq	a0,a5,10f14 <_sbrk_r+0x24>
   10f0a:	60e2                	ld	ra,24(sp)
   10f0c:	6442                	ld	s0,16(sp)
   10f0e:	64a2                	ld	s1,8(sp)
   10f10:	6105                	addi	sp,sp,32
   10f12:	8082                	ret
   10f14:	2581a783          	lw	a5,600(gp) # 1b8c8 <errno>
   10f18:	dbed                	beqz	a5,10f0a <_sbrk_r+0x1a>
   10f1a:	60e2                	ld	ra,24(sp)
   10f1c:	c01c                	sw	a5,0(s0)
   10f1e:	6442                	ld	s0,16(sp)
   10f20:	64a2                	ld	s1,8(sp)
   10f22:	6105                	addi	sp,sp,32
   10f24:	8082                	ret

0000000000010f26 <_write_r>:
   10f26:	1101                	addi	sp,sp,-32
   10f28:	872e                	mv	a4,a1
   10f2a:	e822                	sd	s0,16(sp)
   10f2c:	e426                	sd	s1,8(sp)
   10f2e:	85b2                	mv	a1,a2
   10f30:	842a                	mv	s0,a0
   10f32:	8636                	mv	a2,a3
   10f34:	853a                	mv	a0,a4
   10f36:	ec06                	sd	ra,24(sp)
   10f38:	2401ac23          	sw	zero,600(gp) # 1b8c8 <errno>
   10f3c:	320070ef          	jal	1825c <_write>
   10f40:	57fd                	li	a5,-1
   10f42:	00f50763          	beq	a0,a5,10f50 <_write_r+0x2a>
   10f46:	60e2                	ld	ra,24(sp)
   10f48:	6442                	ld	s0,16(sp)
   10f4a:	64a2                	ld	s1,8(sp)
   10f4c:	6105                	addi	sp,sp,32
   10f4e:	8082                	ret
   10f50:	2581a783          	lw	a5,600(gp) # 1b8c8 <errno>
   10f54:	dbed                	beqz	a5,10f46 <_write_r+0x20>
   10f56:	60e2                	ld	ra,24(sp)
   10f58:	c01c                	sw	a5,0(s0)
   10f5a:	6442                	ld	s0,16(sp)
   10f5c:	64a2                	ld	s1,8(sp)
   10f5e:	6105                	addi	sp,sp,32
   10f60:	8082                	ret

0000000000010f62 <__libc_init_array>:
   10f62:	1101                	addi	sp,sp,-32
   10f64:	e822                	sd	s0,16(sp)
   10f66:	67ed                	lui	a5,0x1b
   10f68:	646d                	lui	s0,0x1b
   10f6a:	e04a                	sd	s2,0(sp)
   10f6c:	ccc78793          	addi	a5,a5,-820 # 1accc <__preinit_array_end>
   10f70:	ccc40713          	addi	a4,s0,-820 # 1accc <__preinit_array_end>
   10f74:	ec06                	sd	ra,24(sp)
   10f76:	e426                	sd	s1,8(sp)
   10f78:	40e78933          	sub	s2,a5,a4
   10f7c:	00e78d63          	beq	a5,a4,10f96 <__libc_init_array+0x34>
   10f80:	40395913          	srai	s2,s2,0x3
   10f84:	ccc40413          	addi	s0,s0,-820
   10f88:	4481                	li	s1,0
   10f8a:	601c                	ld	a5,0(s0)
   10f8c:	0485                	addi	s1,s1,1
   10f8e:	0421                	addi	s0,s0,8
   10f90:	9782                	jalr	a5
   10f92:	ff24ece3          	bltu	s1,s2,10f8a <__libc_init_array+0x28>
   10f96:	67ed                	lui	a5,0x1b
   10f98:	646d                	lui	s0,0x1b
   10f9a:	ce078793          	addi	a5,a5,-800 # 1ace0 <__do_global_dtors_aux_fini_array_entry>
   10f9e:	cd040713          	addi	a4,s0,-816 # 1acd0 <__init_array_start>
   10fa2:	40e78933          	sub	s2,a5,a4
   10fa6:	40395913          	srai	s2,s2,0x3
   10faa:	00e78b63          	beq	a5,a4,10fc0 <__libc_init_array+0x5e>
   10fae:	cd040413          	addi	s0,s0,-816
   10fb2:	4481                	li	s1,0
   10fb4:	601c                	ld	a5,0(s0)
   10fb6:	0485                	addi	s1,s1,1
   10fb8:	0421                	addi	s0,s0,8
   10fba:	9782                	jalr	a5
   10fbc:	ff24ece3          	bltu	s1,s2,10fb4 <__libc_init_array+0x52>
   10fc0:	60e2                	ld	ra,24(sp)
   10fc2:	6442                	ld	s0,16(sp)
   10fc4:	64a2                	ld	s1,8(sp)
   10fc6:	6902                	ld	s2,0(sp)
   10fc8:	6105                	addi	sp,sp,32
   10fca:	8082                	ret

0000000000010fcc <memset>:
   10fcc:	433d                	li	t1,15
   10fce:	872a                	mv	a4,a0
   10fd0:	02c37163          	bgeu	t1,a2,10ff2 <memset+0x26>
   10fd4:	00f77793          	andi	a5,a4,15
   10fd8:	e3c1                	bnez	a5,11058 <memset+0x8c>
   10fda:	e1bd                	bnez	a1,11040 <memset+0x74>
   10fdc:	ff067693          	andi	a3,a2,-16
   10fe0:	8a3d                	andi	a2,a2,15
   10fe2:	96ba                	add	a3,a3,a4
   10fe4:	e30c                	sd	a1,0(a4)
   10fe6:	e70c                	sd	a1,8(a4)
   10fe8:	0741                	addi	a4,a4,16
   10fea:	fed76de3          	bltu	a4,a3,10fe4 <memset+0x18>
   10fee:	e211                	bnez	a2,10ff2 <memset+0x26>
   10ff0:	8082                	ret
   10ff2:	40c306b3          	sub	a3,t1,a2
   10ff6:	068a                	slli	a3,a3,0x2
   10ff8:	00000297          	auipc	t0,0x0
   10ffc:	9696                	add	a3,a3,t0
   10ffe:	00a68067          	jr	10(a3)
   11002:	00b70723          	sb	a1,14(a4)
   11006:	00b706a3          	sb	a1,13(a4)
   1100a:	00b70623          	sb	a1,12(a4)
   1100e:	00b705a3          	sb	a1,11(a4)
   11012:	00b70523          	sb	a1,10(a4)
   11016:	00b704a3          	sb	a1,9(a4)
   1101a:	00b70423          	sb	a1,8(a4)
   1101e:	00b703a3          	sb	a1,7(a4)
   11022:	00b70323          	sb	a1,6(a4)
   11026:	00b702a3          	sb	a1,5(a4)
   1102a:	00b70223          	sb	a1,4(a4)
   1102e:	00b701a3          	sb	a1,3(a4)
   11032:	00b70123          	sb	a1,2(a4)
   11036:	00b700a3          	sb	a1,1(a4)
   1103a:	00b70023          	sb	a1,0(a4)
   1103e:	8082                	ret
   11040:	0ff5f593          	zext.b	a1,a1
   11044:	00859693          	slli	a3,a1,0x8
   11048:	8dd5                	or	a1,a1,a3
   1104a:	01059693          	slli	a3,a1,0x10
   1104e:	8dd5                	or	a1,a1,a3
   11050:	02059693          	slli	a3,a1,0x20
   11054:	8dd5                	or	a1,a1,a3
   11056:	b759                	j	10fdc <memset+0x10>
   11058:	00279693          	slli	a3,a5,0x2
   1105c:	00000297          	auipc	t0,0x0
   11060:	9696                	add	a3,a3,t0
   11062:	8286                	mv	t0,ra
   11064:	fa2680e7          	jalr	-94(a3)
   11068:	8096                	mv	ra,t0
   1106a:	17c1                	addi	a5,a5,-16
   1106c:	8f1d                	sub	a4,a4,a5
   1106e:	963e                	add	a2,a2,a5
   11070:	f8c371e3          	bgeu	t1,a2,10ff2 <memset+0x26>
   11074:	b79d                	j	10fda <memset+0xe>

0000000000011076 <__call_exitprocs>:
   11076:	715d                	addi	sp,sp,-80
   11078:	f052                	sd	s4,32(sp)
   1107a:	f84a                	sd	s2,48(sp)
   1107c:	2601b903          	ld	s2,608(gp) # 1b8d0 <__atexit>
   11080:	e486                	sd	ra,72(sp)
   11082:	04090663          	beqz	s2,110ce <__call_exitprocs+0x58>
   11086:	f44e                	sd	s3,40(sp)
   11088:	ec56                	sd	s5,24(sp)
   1108a:	e85a                	sd	s6,16(sp)
   1108c:	e45e                	sd	s7,8(sp)
   1108e:	e0a2                	sd	s0,64(sp)
   11090:	fc26                	sd	s1,56(sp)
   11092:	e062                	sd	s8,0(sp)
   11094:	8b2a                	mv	s6,a0
   11096:	8bae                	mv	s7,a1
   11098:	59fd                	li	s3,-1
   1109a:	4a85                	li	s5,1
   1109c:	00892483          	lw	s1,8(s2)
   110a0:	fff4841b          	addiw	s0,s1,-1
   110a4:	00044e63          	bltz	s0,110c0 <__call_exitprocs+0x4a>
   110a8:	048e                	slli	s1,s1,0x3
   110aa:	94ca                	add	s1,s1,s2
   110ac:	020b8663          	beqz	s7,110d8 <__call_exitprocs+0x62>
   110b0:	2084b783          	ld	a5,520(s1)
   110b4:	03778263          	beq	a5,s7,110d8 <__call_exitprocs+0x62>
   110b8:	347d                	addiw	s0,s0,-1
   110ba:	14e1                	addi	s1,s1,-8
   110bc:	ff341ae3          	bne	s0,s3,110b0 <__call_exitprocs+0x3a>
   110c0:	6406                	ld	s0,64(sp)
   110c2:	74e2                	ld	s1,56(sp)
   110c4:	79a2                	ld	s3,40(sp)
   110c6:	6ae2                	ld	s5,24(sp)
   110c8:	6b42                	ld	s6,16(sp)
   110ca:	6ba2                	ld	s7,8(sp)
   110cc:	6c02                	ld	s8,0(sp)
   110ce:	60a6                	ld	ra,72(sp)
   110d0:	7942                	ld	s2,48(sp)
   110d2:	7a02                	ld	s4,32(sp)
   110d4:	6161                	addi	sp,sp,80
   110d6:	8082                	ret
   110d8:	00892783          	lw	a5,8(s2)
   110dc:	6494                	ld	a3,8(s1)
   110de:	37fd                	addiw	a5,a5,-1
   110e0:	04878c63          	beq	a5,s0,11138 <__call_exitprocs+0xc2>
   110e4:	0004b423          	sd	zero,8(s1)
   110e8:	c295                	beqz	a3,1110c <__call_exitprocs+0x96>
   110ea:	31092783          	lw	a5,784(s2)
   110ee:	008a973b          	sllw	a4,s5,s0
   110f2:	00892c03          	lw	s8,8(s2)
   110f6:	8ff9                	and	a5,a5,a4
   110f8:	ef99                	bnez	a5,11116 <__call_exitprocs+0xa0>
   110fa:	9682                	jalr	a3
   110fc:	00892703          	lw	a4,8(s2)
   11100:	2601b783          	ld	a5,608(gp) # 1b8d0 <__atexit>
   11104:	03871763          	bne	a4,s8,11132 <__call_exitprocs+0xbc>
   11108:	03279563          	bne	a5,s2,11132 <__call_exitprocs+0xbc>
   1110c:	347d                	addiw	s0,s0,-1
   1110e:	14e1                	addi	s1,s1,-8
   11110:	f9341ee3          	bne	s0,s3,110ac <__call_exitprocs+0x36>
   11114:	b775                	j	110c0 <__call_exitprocs+0x4a>
   11116:	31492783          	lw	a5,788(s2)
   1111a:	1084b583          	ld	a1,264(s1)
   1111e:	8f7d                	and	a4,a4,a5
   11120:	ef19                	bnez	a4,1113e <__call_exitprocs+0xc8>
   11122:	855a                	mv	a0,s6
   11124:	9682                	jalr	a3
   11126:	00892703          	lw	a4,8(s2)
   1112a:	2601b783          	ld	a5,608(gp) # 1b8d0 <__atexit>
   1112e:	fd870de3          	beq	a4,s8,11108 <__call_exitprocs+0x92>
   11132:	d7d9                	beqz	a5,110c0 <__call_exitprocs+0x4a>
   11134:	893e                	mv	s2,a5
   11136:	b79d                	j	1109c <__call_exitprocs+0x26>
   11138:	00892423          	sw	s0,8(s2)
   1113c:	b775                	j	110e8 <__call_exitprocs+0x72>
   1113e:	852e                	mv	a0,a1
   11140:	9682                	jalr	a3
   11142:	bf6d                	j	110fc <__call_exitprocs+0x86>

0000000000011144 <atexit>:
   11144:	85aa                	mv	a1,a0
   11146:	4681                	li	a3,0
   11148:	4601                	li	a2,0
   1114a:	4501                	li	a0,0
   1114c:	0980306f          	j	141e4 <__register_exitproc>

0000000000011150 <_malloc_trim_r>:
   11150:	7179                	addi	sp,sp,-48
   11152:	e44e                	sd	s3,8(sp)
   11154:	69ed                	lui	s3,0x1b
   11156:	f022                	sd	s0,32(sp)
   11158:	ec26                	sd	s1,24(sp)
   1115a:	e84a                	sd	s2,16(sp)
   1115c:	e052                	sd	s4,0(sp)
   1115e:	f406                	sd	ra,40(sp)
   11160:	8a2e                	mv	s4,a1
   11162:	892a                	mv	s2,a0
   11164:	ce898993          	addi	s3,s3,-792 # 1ace8 <__malloc_av_>
   11168:	847ff0ef          	jal	109ae <__malloc_lock>
   1116c:	0109b783          	ld	a5,16(s3)
   11170:	6405                	lui	s0,0x1
   11172:	fdf40413          	addi	s0,s0,-33 # fdf <exit-0xf141>
   11176:	6784                	ld	s1,8(a5)
   11178:	6785                	lui	a5,0x1
   1117a:	98f1                	andi	s1,s1,-4
   1117c:	9426                	add	s0,s0,s1
   1117e:	41440433          	sub	s0,s0,s4
   11182:	8031                	srli	s0,s0,0xc
   11184:	147d                	addi	s0,s0,-1
   11186:	0432                	slli	s0,s0,0xc
   11188:	00f44b63          	blt	s0,a5,1119e <_malloc_trim_r+0x4e>
   1118c:	4581                	li	a1,0
   1118e:	854a                	mv	a0,s2
   11190:	d61ff0ef          	jal	10ef0 <_sbrk_r>
   11194:	0109b783          	ld	a5,16(s3)
   11198:	97a6                	add	a5,a5,s1
   1119a:	00f50e63          	beq	a0,a5,111b6 <_malloc_trim_r+0x66>
   1119e:	854a                	mv	a0,s2
   111a0:	811ff0ef          	jal	109b0 <__malloc_unlock>
   111a4:	70a2                	ld	ra,40(sp)
   111a6:	7402                	ld	s0,32(sp)
   111a8:	64e2                	ld	s1,24(sp)
   111aa:	6942                	ld	s2,16(sp)
   111ac:	69a2                	ld	s3,8(sp)
   111ae:	6a02                	ld	s4,0(sp)
   111b0:	4501                	li	a0,0
   111b2:	6145                	addi	sp,sp,48
   111b4:	8082                	ret
   111b6:	408005b3          	neg	a1,s0
   111ba:	854a                	mv	a0,s2
   111bc:	d35ff0ef          	jal	10ef0 <_sbrk_r>
   111c0:	57fd                	li	a5,-1
   111c2:	02f50963          	beq	a0,a5,111f4 <_malloc_trim_r+0xa4>
   111c6:	2b018793          	addi	a5,gp,688 # 1b920 <__malloc_current_mallinfo>
   111ca:	0109b683          	ld	a3,16(s3)
   111ce:	4398                	lw	a4,0(a5)
   111d0:	8c81                	sub	s1,s1,s0
   111d2:	0014e493          	ori	s1,s1,1
   111d6:	854a                	mv	a0,s2
   111d8:	9f01                	subw	a4,a4,s0
   111da:	e684                	sd	s1,8(a3)
   111dc:	c398                	sw	a4,0(a5)
   111de:	fd2ff0ef          	jal	109b0 <__malloc_unlock>
   111e2:	70a2                	ld	ra,40(sp)
   111e4:	7402                	ld	s0,32(sp)
   111e6:	64e2                	ld	s1,24(sp)
   111e8:	6942                	ld	s2,16(sp)
   111ea:	69a2                	ld	s3,8(sp)
   111ec:	6a02                	ld	s4,0(sp)
   111ee:	4505                	li	a0,1
   111f0:	6145                	addi	sp,sp,48
   111f2:	8082                	ret
   111f4:	4581                	li	a1,0
   111f6:	854a                	mv	a0,s2
   111f8:	cf9ff0ef          	jal	10ef0 <_sbrk_r>
   111fc:	0109b703          	ld	a4,16(s3)
   11200:	46fd                	li	a3,31
   11202:	40e507b3          	sub	a5,a0,a4
   11206:	f8f6dce3          	bge	a3,a5,1119e <_malloc_trim_r+0x4e>
   1120a:	2201b603          	ld	a2,544(gp) # 1b890 <__malloc_sbrk_base>
   1120e:	0017e793          	ori	a5,a5,1
   11212:	8d11                	sub	a0,a0,a2
   11214:	e71c                	sd	a5,8(a4)
   11216:	2aa1a823          	sw	a0,688(gp) # 1b920 <__malloc_current_mallinfo>
   1121a:	b751                	j	1119e <_malloc_trim_r+0x4e>

000000000001121c <_free_r>:
   1121c:	c5f5                	beqz	a1,11308 <_free_r+0xec>
   1121e:	1101                	addi	sp,sp,-32
   11220:	e822                	sd	s0,16(sp)
   11222:	e426                	sd	s1,8(sp)
   11224:	842e                	mv	s0,a1
   11226:	84aa                	mv	s1,a0
   11228:	ec06                	sd	ra,24(sp)
   1122a:	f84ff0ef          	jal	109ae <__malloc_lock>
   1122e:	ff843503          	ld	a0,-8(s0)
   11232:	ff040713          	addi	a4,s0,-16
   11236:	65ed                	lui	a1,0x1b
   11238:	ffe57793          	andi	a5,a0,-2
   1123c:	00f70633          	add	a2,a4,a5
   11240:	ce858593          	addi	a1,a1,-792 # 1ace8 <__malloc_av_>
   11244:	6614                	ld	a3,8(a2)
   11246:	0105b803          	ld	a6,16(a1)
   1124a:	00157893          	andi	a7,a0,1
   1124e:	9af1                	andi	a3,a3,-4
   11250:	12c80a63          	beq	a6,a2,11384 <_free_r+0x168>
   11254:	e614                	sd	a3,8(a2)
   11256:	00d60833          	add	a6,a2,a3
   1125a:	00883803          	ld	a6,8(a6)
   1125e:	00187813          	andi	a6,a6,1
   11262:	06089e63          	bnez	a7,112de <_free_r+0xc2>
   11266:	ff043303          	ld	t1,-16(s0)
   1126a:	656d                	lui	a0,0x1b
   1126c:	cf850513          	addi	a0,a0,-776 # 1acf8 <__malloc_av_+0x10>
   11270:	40670733          	sub	a4,a4,t1
   11274:	01073883          	ld	a7,16(a4)
   11278:	979a                	add	a5,a5,t1
   1127a:	0ea88863          	beq	a7,a0,1136a <_free_r+0x14e>
   1127e:	01873303          	ld	t1,24(a4)
   11282:	0068bc23          	sd	t1,24(a7)
   11286:	01133823          	sd	a7,16(t1)
   1128a:	12080663          	beqz	a6,113b6 <_free_r+0x19a>
   1128e:	0017e693          	ori	a3,a5,1
   11292:	e714                	sd	a3,8(a4)
   11294:	e21c                	sd	a5,0(a2)
   11296:	1ff00693          	li	a3,511
   1129a:	08f6e163          	bltu	a3,a5,1131c <_free_r+0x100>
   1129e:	838d                	srli	a5,a5,0x3
   112a0:	2781                	sext.w	a5,a5
   112a2:	0017869b          	addiw	a3,a5,1 # 1001 <exit-0xf11f>
   112a6:	0016969b          	slliw	a3,a3,0x1
   112aa:	068e                	slli	a3,a3,0x3
   112ac:	0085b803          	ld	a6,8(a1)
   112b0:	96ae                	add	a3,a3,a1
   112b2:	6288                	ld	a0,0(a3)
   112b4:	4605                	li	a2,1
   112b6:	4027d79b          	sraiw	a5,a5,0x2
   112ba:	00f617b3          	sll	a5,a2,a5
   112be:	0107e7b3          	or	a5,a5,a6
   112c2:	ff068613          	addi	a2,a3,-16
   112c6:	eb08                	sd	a0,16(a4)
   112c8:	ef10                	sd	a2,24(a4)
   112ca:	e59c                	sd	a5,8(a1)
   112cc:	e298                	sd	a4,0(a3)
   112ce:	ed18                	sd	a4,24(a0)
   112d0:	6442                	ld	s0,16(sp)
   112d2:	60e2                	ld	ra,24(sp)
   112d4:	8526                	mv	a0,s1
   112d6:	64a2                	ld	s1,8(sp)
   112d8:	6105                	addi	sp,sp,32
   112da:	ed6ff06f          	j	109b0 <__malloc_unlock>
   112de:	02081663          	bnez	a6,1130a <_free_r+0xee>
   112e2:	656d                	lui	a0,0x1b
   112e4:	97b6                	add	a5,a5,a3
   112e6:	cf850513          	addi	a0,a0,-776 # 1acf8 <__malloc_av_+0x10>
   112ea:	6a14                	ld	a3,16(a2)
   112ec:	0017e893          	ori	a7,a5,1
   112f0:	00f70833          	add	a6,a4,a5
   112f4:	10a68163          	beq	a3,a0,113f6 <_free_r+0x1da>
   112f8:	6e10                	ld	a2,24(a2)
   112fa:	ee90                	sd	a2,24(a3)
   112fc:	ea14                	sd	a3,16(a2)
   112fe:	01173423          	sd	a7,8(a4)
   11302:	00f83023          	sd	a5,0(a6)
   11306:	bf41                	j	11296 <_free_r+0x7a>
   11308:	8082                	ret
   1130a:	00156513          	ori	a0,a0,1
   1130e:	fea43c23          	sd	a0,-8(s0)
   11312:	e21c                	sd	a5,0(a2)
   11314:	1ff00693          	li	a3,511
   11318:	f8f6f3e3          	bgeu	a3,a5,1129e <_free_r+0x82>
   1131c:	0097d693          	srli	a3,a5,0x9
   11320:	4611                	li	a2,4
   11322:	08d66c63          	bltu	a2,a3,113ba <_free_r+0x19e>
   11326:	0067d693          	srli	a3,a5,0x6
   1132a:	0396851b          	addiw	a0,a3,57
   1132e:	0015151b          	slliw	a0,a0,0x1
   11332:	050e                	slli	a0,a0,0x3
   11334:	0386861b          	addiw	a2,a3,56
   11338:	952e                	add	a0,a0,a1
   1133a:	6114                	ld	a3,0(a0)
   1133c:	1541                	addi	a0,a0,-16
   1133e:	00d51663          	bne	a0,a3,1134a <_free_r+0x12e>
   11342:	a0d9                	j	11408 <_free_r+0x1ec>
   11344:	6a94                	ld	a3,16(a3)
   11346:	00d50663          	beq	a0,a3,11352 <_free_r+0x136>
   1134a:	6690                	ld	a2,8(a3)
   1134c:	9a71                	andi	a2,a2,-4
   1134e:	fec7ebe3          	bltu	a5,a2,11344 <_free_r+0x128>
   11352:	6e88                	ld	a0,24(a3)
   11354:	ef08                	sd	a0,24(a4)
   11356:	eb14                	sd	a3,16(a4)
   11358:	6442                	ld	s0,16(sp)
   1135a:	e918                	sd	a4,16(a0)
   1135c:	60e2                	ld	ra,24(sp)
   1135e:	8526                	mv	a0,s1
   11360:	64a2                	ld	s1,8(sp)
   11362:	ee98                	sd	a4,24(a3)
   11364:	6105                	addi	sp,sp,32
   11366:	e4aff06f          	j	109b0 <__malloc_unlock>
   1136a:	06081963          	bnez	a6,113dc <_free_r+0x1c0>
   1136e:	6e0c                	ld	a1,24(a2)
   11370:	6a10                	ld	a2,16(a2)
   11372:	96be                	add	a3,a3,a5
   11374:	0016e793          	ori	a5,a3,1
   11378:	ee0c                	sd	a1,24(a2)
   1137a:	e990                	sd	a2,16(a1)
   1137c:	e71c                	sd	a5,8(a4)
   1137e:	9736                	add	a4,a4,a3
   11380:	e314                	sd	a3,0(a4)
   11382:	b7b9                	j	112d0 <_free_r+0xb4>
   11384:	96be                	add	a3,a3,a5
   11386:	00089a63          	bnez	a7,1139a <_free_r+0x17e>
   1138a:	ff043503          	ld	a0,-16(s0)
   1138e:	8f09                	sub	a4,a4,a0
   11390:	6f1c                	ld	a5,24(a4)
   11392:	6b10                	ld	a2,16(a4)
   11394:	96aa                	add	a3,a3,a0
   11396:	ee1c                	sd	a5,24(a2)
   11398:	eb90                	sd	a2,16(a5)
   1139a:	0016e613          	ori	a2,a3,1
   1139e:	2281b783          	ld	a5,552(gp) # 1b898 <__malloc_trim_threshold>
   113a2:	e710                	sd	a2,8(a4)
   113a4:	e998                	sd	a4,16(a1)
   113a6:	f2f6e5e3          	bltu	a3,a5,112d0 <_free_r+0xb4>
   113aa:	2481b583          	ld	a1,584(gp) # 1b8b8 <__malloc_top_pad>
   113ae:	8526                	mv	a0,s1
   113b0:	da1ff0ef          	jal	11150 <_malloc_trim_r>
   113b4:	bf31                	j	112d0 <_free_r+0xb4>
   113b6:	97b6                	add	a5,a5,a3
   113b8:	bf0d                	j	112ea <_free_r+0xce>
   113ba:	4651                	li	a2,20
   113bc:	02d67563          	bgeu	a2,a3,113e6 <_free_r+0x1ca>
   113c0:	05400613          	li	a2,84
   113c4:	04d66d63          	bltu	a2,a3,1141e <_free_r+0x202>
   113c8:	00c7d693          	srli	a3,a5,0xc
   113cc:	06f6851b          	addiw	a0,a3,111
   113d0:	0015151b          	slliw	a0,a0,0x1
   113d4:	050e                	slli	a0,a0,0x3
   113d6:	06e6861b          	addiw	a2,a3,110
   113da:	bfb9                	j	11338 <_free_r+0x11c>
   113dc:	0017e693          	ori	a3,a5,1
   113e0:	e714                	sd	a3,8(a4)
   113e2:	e21c                	sd	a5,0(a2)
   113e4:	b5f5                	j	112d0 <_free_r+0xb4>
   113e6:	05c6851b          	addiw	a0,a3,92
   113ea:	0015151b          	slliw	a0,a0,0x1
   113ee:	050e                	slli	a0,a0,0x3
   113f0:	05b6861b          	addiw	a2,a3,91
   113f4:	b791                	j	11338 <_free_r+0x11c>
   113f6:	f598                	sd	a4,40(a1)
   113f8:	f198                	sd	a4,32(a1)
   113fa:	ef08                	sd	a0,24(a4)
   113fc:	eb08                	sd	a0,16(a4)
   113fe:	01173423          	sd	a7,8(a4)
   11402:	00f83023          	sd	a5,0(a6)
   11406:	b5e9                	j	112d0 <_free_r+0xb4>
   11408:	0085b803          	ld	a6,8(a1)
   1140c:	4026561b          	sraiw	a2,a2,0x2
   11410:	4785                	li	a5,1
   11412:	00c797b3          	sll	a5,a5,a2
   11416:	0107e7b3          	or	a5,a5,a6
   1141a:	e59c                	sd	a5,8(a1)
   1141c:	bf25                	j	11354 <_free_r+0x138>
   1141e:	15400613          	li	a2,340
   11422:	00d66c63          	bltu	a2,a3,1143a <_free_r+0x21e>
   11426:	00f7d693          	srli	a3,a5,0xf
   1142a:	0786851b          	addiw	a0,a3,120
   1142e:	0015151b          	slliw	a0,a0,0x1
   11432:	050e                	slli	a0,a0,0x3
   11434:	0776861b          	addiw	a2,a3,119
   11438:	b701                	j	11338 <_free_r+0x11c>
   1143a:	55400613          	li	a2,1364
   1143e:	00d66c63          	bltu	a2,a3,11456 <_free_r+0x23a>
   11442:	0127d693          	srli	a3,a5,0x12
   11446:	07d6851b          	addiw	a0,a3,125
   1144a:	0015151b          	slliw	a0,a0,0x1
   1144e:	050e                	slli	a0,a0,0x3
   11450:	07c6861b          	addiw	a2,a3,124
   11454:	b5d5                	j	11338 <_free_r+0x11c>
   11456:	7f000513          	li	a0,2032
   1145a:	07e00613          	li	a2,126
   1145e:	bde9                	j	11338 <_free_r+0x11c>

0000000000011460 <_vfprintf_r>:
   11460:	dc010113          	addi	sp,sp,-576
   11464:	22113c23          	sd	ra,568(sp)
   11468:	22813823          	sd	s0,560(sp)
   1146c:	23213023          	sd	s2,544(sp)
   11470:	21513423          	sd	s5,520(sp)
   11474:	892e                	mv	s2,a1
   11476:	8ab2                	mv	s5,a2
   11478:	ec36                	sd	a3,24(sp)
   1147a:	842a                	mv	s0,a0
   1147c:	e02a                	sd	a0,0(sp)
   1147e:	20b020ef          	jal	13e88 <_localeconv_r>
   11482:	611c                	ld	a5,0(a0)
   11484:	853e                	mv	a0,a5
   11486:	e4be                	sd	a5,72(sp)
   11488:	413020ef          	jal	1409a <strlen>
   1148c:	e0aa                	sd	a0,64(sp)
   1148e:	e182                	sd	zero,192(sp)
   11490:	e582                	sd	zero,200(sp)
   11492:	c409                	beqz	s0,1149c <_vfprintf_r+0x3c>
   11494:	6438                	ld	a4,72(s0)
   11496:	e319                	bnez	a4,1149c <_vfprintf_r+0x3c>
   11498:	4ce0106f          	j	12966 <_vfprintf_r+0x1506>
   1149c:	01091703          	lh	a4,16(s2)
   114a0:	0ac92683          	lw	a3,172(s2)
   114a4:	6589                	lui	a1,0x2
   114a6:	03271613          	slli	a2,a4,0x32
   114aa:	26064e63          	bltz	a2,11726 <_vfprintf_r+0x2c6>
   114ae:	7679                	lui	a2,0xffffe
   114b0:	8f4d                	or	a4,a4,a1
   114b2:	167d                	addi	a2,a2,-1 # ffffffffffffdfff <__BSS_END__+0xfffffffffffe218f>
   114b4:	8ef1                	and	a3,a3,a2
   114b6:	00e91823          	sh	a4,16(s2)
   114ba:	0107171b          	slliw	a4,a4,0x10
   114be:	4107571b          	sraiw	a4,a4,0x10
   114c2:	0ad92623          	sw	a3,172(s2)
   114c6:	00877693          	andi	a3,a4,8
   114ca:	20068563          	beqz	a3,116d4 <_vfprintf_r+0x274>
   114ce:	01893683          	ld	a3,24(s2)
   114d2:	20068163          	beqz	a3,116d4 <_vfprintf_r+0x274>
   114d6:	8b69                	andi	a4,a4,26
   114d8:	46a9                	li	a3,10
   114da:	20d70863          	beq	a4,a3,116ea <_vfprintf_r+0x28a>
   114de:	22913423          	sd	s1,552(sp)
   114e2:	21313c23          	sd	s3,536(sp)
   114e6:	21413823          	sd	s4,528(sp)
   114ea:	efee                	sd	s11,472(sp)
   114ec:	21613023          	sd	s6,512(sp)
   114f0:	ffde                	sd	s7,504(sp)
   114f2:	fbe2                	sd	s8,496(sp)
   114f4:	f7e6                	sd	s9,488(sp)
   114f6:	f3ea                	sd	s10,480(sp)
   114f8:	8dd6                	mv	s11,s5
   114fa:	000dc703          	lbu	a4,0(s11)
   114fe:	15010a13          	addi	s4,sp,336
   11502:	f182                	sd	zero,224(sp)
   11504:	cd82                	sw	zero,216(sp)
   11506:	e9d2                	sd	s4,208(sp)
   11508:	f402                	sd	zero,40(sp)
   1150a:	ec82                	sd	zero,88(sp)
   1150c:	f482                	sd	zero,104(sp)
   1150e:	f882                	sd	zero,112(sp)
   11510:	f082                	sd	zero,96(sp)
   11512:	e802                	sd	zero,16(sp)
   11514:	e44a                	sd	s2,8(sp)
   11516:	02500413          	li	s0,37
   1151a:	44c1                	li	s1,16
   1151c:	89d2                	mv	s3,s4
   1151e:	18070963          	beqz	a4,116b0 <_vfprintf_r+0x250>
   11522:	8bee                	mv	s7,s11
   11524:	1e870063          	beq	a4,s0,11704 <_vfprintf_r+0x2a4>
   11528:	001bc703          	lbu	a4,1(s7)
   1152c:	0b85                	addi	s7,s7,1
   1152e:	fb7d                	bnez	a4,11524 <_vfprintf_r+0xc4>
   11530:	41bb8abb          	subw	s5,s7,s11
   11534:	160a8e63          	beqz	s5,116b0 <_vfprintf_r+0x250>
   11538:	768e                	ld	a3,224(sp)
   1153a:	476e                	lw	a4,216(sp)
   1153c:	01b9b023          	sd	s11,0(s3)
   11540:	96d6                	add	a3,a3,s5
   11542:	2705                	addiw	a4,a4,1
   11544:	0159b423          	sd	s5,8(s3)
   11548:	f1b6                	sd	a3,224(sp)
   1154a:	cdba                	sw	a4,216(sp)
   1154c:	469d                	li	a3,7
   1154e:	09c1                	addi	s3,s3,16
   11550:	1ce6c163          	blt	a3,a4,11712 <_vfprintf_r+0x2b2>
   11554:	67c2                	ld	a5,16(sp)
   11556:	000bc703          	lbu	a4,0(s7)
   1155a:	015787bb          	addw	a5,a5,s5
   1155e:	e83e                	sd	a5,16(sp)
   11560:	14070863          	beqz	a4,116b0 <_vfprintf_r+0x250>
   11564:	537d                	li	t1,-1
   11566:	4f01                	li	t5,0
   11568:	001bce03          	lbu	t3,1(s7)
   1156c:	08010fa3          	sb	zero,159(sp)
   11570:	0b85                	addi	s7,s7,1
   11572:	4c81                	li	s9,0
   11574:	05a00a93          	li	s5,90
   11578:	897a                	mv	s2,t5
   1157a:	8b1a                	mv	s6,t1
   1157c:	0b85                	addi	s7,s7,1
   1157e:	2e01                	sext.w	t3,t3
   11580:	fe0e079b          	addiw	a5,t3,-32
   11584:	04fae563          	bltu	s5,a5,115ce <_vfprintf_r+0x16e>
   11588:	02079713          	slli	a4,a5,0x20
   1158c:	01e75793          	srli	a5,a4,0x1e
   11590:	6765                	lui	a4,0x19
   11592:	66870713          	addi	a4,a4,1640 # 19668 <__clzdi2+0x1b8>
   11596:	97ba                	add	a5,a5,a4
   11598:	439c                	lw	a5,0(a5)
   1159a:	8782                	jr	a5
   1159c:	4c81                	li	s9,0
   1159e:	46a5                	li	a3,9
   115a0:	000bc703          	lbu	a4,0(s7)
   115a4:	002c979b          	slliw	a5,s9,0x2
   115a8:	01978cbb          	addw	s9,a5,s9
   115ac:	fd0e0e1b          	addiw	t3,t3,-48
   115b0:	001c9c9b          	slliw	s9,s9,0x1
   115b4:	fd07079b          	addiw	a5,a4,-48
   115b8:	0b85                	addi	s7,s7,1
   115ba:	019e0cbb          	addw	s9,t3,s9
   115be:	00070e1b          	sext.w	t3,a4
   115c2:	fcf6ffe3          	bgeu	a3,a5,115a0 <_vfprintf_r+0x140>
   115c6:	fe0e079b          	addiw	a5,t3,-32
   115ca:	fafaffe3          	bgeu	s5,a5,11588 <_vfprintf_r+0x128>
   115ce:	8f4a                	mv	t5,s2
   115d0:	0e0e0063          	beqz	t3,116b0 <_vfprintf_r+0x250>
   115d4:	4a85                	li	s5,1
   115d6:	0fc10423          	sb	t3,232(sp)
   115da:	08010fa3          	sb	zero,159(sp)
   115de:	8d56                	mv	s10,s5
   115e0:	f002                	sd	zero,32(sp)
   115e2:	4301                	li	t1,0
   115e4:	fc02                	sd	zero,56(sp)
   115e6:	f802                	sd	zero,48(sp)
   115e8:	4c01                	li	s8,0
   115ea:	0e810d93          	addi	s11,sp,232
   115ee:	7b0e                	ld	s6,224(sp)
   115f0:	084f7913          	andi	s2,t5,132
   115f4:	865a                	mv	a2,s6
   115f6:	5c090f63          	beqz	s2,11bd4 <_vfprintf_r+0x774>
   115fa:	09f14703          	lbu	a4,159(sp)
   115fe:	c331                	beqz	a4,11642 <_vfprintf_r+0x1e2>
   11600:	45ee                	lw	a1,216(sp)
   11602:	4701                	li	a4,0
   11604:	4685                	li	a3,1
   11606:	0b05                	addi	s6,s6,1
   11608:	2585                	addiw	a1,a1,1 # 2001 <exit-0xe11f>
   1160a:	09f10613          	addi	a2,sp,159
   1160e:	00d9b423          	sd	a3,8(s3)
   11612:	00c9b023          	sd	a2,0(s3)
   11616:	f1da                	sd	s6,224(sp)
   11618:	cdae                	sw	a1,216(sp)
   1161a:	469d                	li	a3,7
   1161c:	09c1                	addi	s3,s3,16
   1161e:	44b6ce63          	blt	a3,a1,11a7a <_vfprintf_r+0x61a>
   11622:	c305                	beqz	a4,11642 <_vfprintf_r+0x1e2>
   11624:	45ee                	lw	a1,216(sp)
   11626:	4709                	li	a4,2
   11628:	0b09                	addi	s6,s6,2
   1162a:	2585                	addiw	a1,a1,1
   1162c:	1114                	addi	a3,sp,160
   1162e:	00e9b423          	sd	a4,8(s3)
   11632:	00d9b023          	sd	a3,0(s3)
   11636:	f1da                	sd	s6,224(sp)
   11638:	cdae                	sw	a1,216(sp)
   1163a:	471d                	li	a4,7
   1163c:	09c1                	addi	s3,s3,16
   1163e:	3eb74ae3          	blt	a4,a1,12232 <_vfprintf_r+0xdd2>
   11642:	08000713          	li	a4,128
   11646:	2ee903e3          	beq	s2,a4,1212c <_vfprintf_r+0xccc>
   1164a:	4153033b          	subw	t1,t1,s5
   1164e:	58604f63          	bgtz	t1,11bec <_vfprintf_r+0x78c>
   11652:	100f7713          	andi	a4,t5,256
   11656:	62071963          	bnez	a4,11c88 <_vfprintf_r+0x828>
   1165a:	476e                	lw	a4,216(sp)
   1165c:	9b56                	add	s6,s6,s5
   1165e:	f1da                	sd	s6,224(sp)
   11660:	2705                	addiw	a4,a4,1
   11662:	01b9b023          	sd	s11,0(s3)
   11666:	0159b423          	sd	s5,8(s3)
   1166a:	cdba                	sw	a4,216(sp)
   1166c:	479d                	li	a5,7
   1166e:	4ce7c663          	blt	a5,a4,11b3a <_vfprintf_r+0x6da>
   11672:	09c1                	addi	s3,s3,16
   11674:	004f7f13          	andi	t5,t5,4
   11678:	000f0663          	beqz	t5,11684 <_vfprintf_r+0x224>
   1167c:	41ac8abb          	subw	s5,s9,s10
   11680:	3d5049e3          	bgtz	s5,12252 <_vfprintf_r+0xdf2>
   11684:	87e6                	mv	a5,s9
   11686:	01acd363          	bge	s9,s10,1168c <_vfprintf_r+0x22c>
   1168a:	87ea                	mv	a5,s10
   1168c:	6742                	ld	a4,16(sp)
   1168e:	9fb9                	addw	a5,a5,a4
   11690:	e83e                	sd	a5,16(sp)
   11692:	340b14e3          	bnez	s6,121da <_vfprintf_r+0xd7a>
   11696:	7782                	ld	a5,32(sp)
   11698:	cd82                	sw	zero,216(sp)
   1169a:	c789                	beqz	a5,116a4 <_vfprintf_r+0x244>
   1169c:	7582                	ld	a1,32(sp)
   1169e:	6502                	ld	a0,0(sp)
   116a0:	b7dff0ef          	jal	1121c <_free_r>
   116a4:	89d2                	mv	s3,s4
   116a6:	8dde                	mv	s11,s7
   116a8:	000dc703          	lbu	a4,0(s11)
   116ac:	e6071be3          	bnez	a4,11522 <_vfprintf_r+0xc2>
   116b0:	778e                	ld	a5,224(sp)
   116b2:	6922                	ld	s2,8(sp)
   116b4:	340780e3          	beqz	a5,121f4 <_vfprintf_r+0xd94>
   116b8:	6502                	ld	a0,0(sp)
   116ba:	0990                	addi	a2,sp,208
   116bc:	85ca                	mv	a1,s2
   116be:	72f010ef          	jal	135ec <__sprint_r>
   116c2:	3330006f          	j	121f4 <_vfprintf_r+0xd94>
   116c6:	01096f13          	ori	t5,s2,16
   116ca:	000bce03          	lbu	t3,0(s7)
   116ce:	000f091b          	sext.w	s2,t5
   116d2:	b56d                	j	1157c <_vfprintf_r+0x11c>
   116d4:	6502                	ld	a0,0(sp)
   116d6:	85ca                	mv	a1,s2
   116d8:	55c020ef          	jal	13c34 <__swsetup_r>
   116dc:	e929                	bnez	a0,1172e <_vfprintf_r+0x2ce>
   116de:	01091703          	lh	a4,16(s2)
   116e2:	46a9                	li	a3,10
   116e4:	8b69                	andi	a4,a4,26
   116e6:	ded71ce3          	bne	a4,a3,114de <_vfprintf_r+0x7e>
   116ea:	01291703          	lh	a4,18(s2)
   116ee:	de0748e3          	bltz	a4,114de <_vfprintf_r+0x7e>
   116f2:	66e2                	ld	a3,24(sp)
   116f4:	6502                	ld	a0,0(sp)
   116f6:	8656                	mv	a2,s5
   116f8:	85ca                	mv	a1,s2
   116fa:	65d010ef          	jal	13556 <__sbprintf>
   116fe:	e82a                	sd	a0,16(sp)
   11700:	31b0006f          	j	1221a <_vfprintf_r+0xdba>
   11704:	41bb8abb          	subw	s5,s7,s11
   11708:	e20a98e3          	bnez	s5,11538 <_vfprintf_r+0xd8>
   1170c:	000bc703          	lbu	a4,0(s7)
   11710:	bd81                	j	11560 <_vfprintf_r+0x100>
   11712:	65a2                	ld	a1,8(sp)
   11714:	6502                	ld	a0,0(sp)
   11716:	0990                	addi	a2,sp,208
   11718:	6d5010ef          	jal	135ec <__sprint_r>
   1171c:	c119                	beqz	a0,11722 <_vfprintf_r+0x2c2>
   1171e:	4970106f          	j	133b4 <_vfprintf_r+0x1f54>
   11722:	89d2                	mv	s3,s4
   11724:	bd05                	j	11554 <_vfprintf_r+0xf4>
   11726:	03269613          	slli	a2,a3,0x32
   1172a:	d8065ee3          	bgez	a2,114c6 <_vfprintf_r+0x66>
   1172e:	57fd                	li	a5,-1
   11730:	e83e                	sd	a5,16(sp)
   11732:	2e90006f          	j	1221a <_vfprintf_r+0xdba>
   11736:	00897713          	andi	a4,s2,8
   1173a:	8f4a                	mv	t5,s2
   1173c:	835a                	mv	t1,s6
   1173e:	68071be3          	bnez	a4,125d4 <_vfprintf_r+0x1174>
   11742:	67e2                	ld	a5,24(sp)
   11744:	f072                	sd	t3,32(sp)
   11746:	fc5a                	sd	s6,56(sp)
   11748:	2388                	fld	fa0,0(a5)
   1174a:	00878d13          	addi	s10,a5,8
   1174e:	f84a                	sd	s2,48(sp)
   11750:	4a1070ef          	jal	193f0 <__extenddftf2>
   11754:	7362                	ld	t1,56(sp)
   11756:	7f42                	ld	t5,48(sp)
   11758:	7e02                	ld	t3,32(sp)
   1175a:	ec6a                	sd	s10,24(sp)
   1175c:	872a                	mv	a4,a0
   1175e:	0188                	addi	a0,sp,192
   11760:	fc1a                	sd	t1,56(sp)
   11762:	f87a                	sd	t5,48(sp)
   11764:	f072                	sd	t3,32(sp)
   11766:	e1ba                	sd	a4,192(sp)
   11768:	e5ae                	sd	a1,200(sp)
   1176a:	459020ef          	jal	143c2 <_ldcheck>
   1176e:	d52a                	sw	a0,168(sp)
   11770:	4709                	li	a4,2
   11772:	7e02                	ld	t3,32(sp)
   11774:	7f42                	ld	t5,48(sp)
   11776:	7362                	ld	t1,56(sp)
   11778:	00e51463          	bne	a0,a4,11780 <_vfprintf_r+0x320>
   1177c:	2320106f          	j	129ae <_vfprintf_r+0x154e>
   11780:	4685                	li	a3,1
   11782:	00d51463          	bne	a0,a3,1178a <_vfprintf_r+0x32a>
   11786:	3720106f          	j	12af8 <_vfprintf_r+0x1698>
   1178a:	06100713          	li	a4,97
   1178e:	00ee1463          	bne	t3,a4,11796 <_vfprintf_r+0x336>
   11792:	0020106f          	j	12794 <_vfprintf_r+0x1334>
   11796:	04100713          	li	a4,65
   1179a:	05800793          	li	a5,88
   1179e:	00ee1463          	bne	t3,a4,117a6 <_vfprintf_r+0x346>
   117a2:	7f70006f          	j	12798 <_vfprintf_r+0x1338>
   117a6:	577d                	li	a4,-1
   117a8:	00e31463          	bne	t1,a4,117b0 <_vfprintf_r+0x350>
   117ac:	3550106f          	j	13300 <_vfprintf_r+0x1ea0>
   117b0:	678e                	ld	a5,192(sp)
   117b2:	100f6b13          	ori	s6,t5,256
   117b6:	06700613          	li	a2,103
   117ba:	6aae                	ld	s5,200(sp)
   117bc:	2b01                	sext.w	s6,s6
   117be:	8c3e                	mv	s8,a5
   117c0:	00ce1463          	bne	t3,a2,117c8 <_vfprintf_r+0x368>
   117c4:	3f70106f          	j	133ba <_vfprintf_r+0x1f5a>
   117c8:	04700613          	li	a2,71
   117cc:	00ce1463          	bne	t3,a2,117d4 <_vfprintf_r+0x374>
   117d0:	2070106f          	j	131d6 <_vfprintf_r+0x1d76>
   117d4:	f87a                	sd	t5,48(sp)
   117d6:	000ad463          	bgez	s5,117de <_vfprintf_r+0x37e>
   117da:	49b0106f          	j	13474 <_vfprintf_r+0x2014>
   117de:	fbfe069b          	addiw	a3,t3,-65
   117e2:	8f5a                	mv	t5,s6
   117e4:	f002                	sd	zero,32(sp)
   117e6:	e882                	sd	zero,80(sp)
   117e8:	02000613          	li	a2,32
   117ec:	02061713          	slli	a4,a2,0x20
   117f0:	4905                	li	s2,1
   117f2:	9732                	add	a4,a4,a2
   117f4:	00d916b3          	sll	a3,s2,a3
   117f8:	8f75                	and	a4,a4,a3
   117fa:	c319                	beqz	a4,11800 <_vfprintf_r+0x3a0>
   117fc:	70c0106f          	j	12f08 <_vfprintf_r+0x1aa8>
   11800:	4641                	li	a2,16
   11802:	02061713          	slli	a4,a2,0x20
   11806:	9732                	add	a4,a4,a2
   11808:	8f75                	and	a4,a4,a3
   1180a:	c319                	beqz	a4,11810 <_vfprintf_r+0x3b0>
   1180c:	1c10106f          	j	131cc <_vfprintf_r+0x1d6c>
   11810:	02091713          	slli	a4,s2,0x20
   11814:	974a                	add	a4,a4,s2
   11816:	8f75                	and	a4,a4,a3
   11818:	e319                	bnez	a4,1181e <_vfprintf_r+0x3be>
   1181a:	1d90106f          	j	131f2 <_vfprintf_r+0x1d92>
   1181e:	8562                	mv	a0,s8
   11820:	1130                	addi	a2,sp,168
   11822:	85d6                	mv	a1,s5
   11824:	fc1a                	sd	t1,56(sp)
   11826:	f472                	sd	t3,40(sp)
   11828:	10d020ef          	jal	14134 <frexpl>
   1182c:	00fff6b7          	lui	a3,0xfff
   11830:	169a                	slli	a3,a3,0x26
   11832:	4601                	li	a2,0
   11834:	493060ef          	jal	184c6 <__multf3>
   11838:	4601                	li	a2,0
   1183a:	4681                	li	a3,0
   1183c:	8c2a                	mv	s8,a0
   1183e:	8b2e                	mv	s6,a1
   11840:	2a3060ef          	jal	182e2 <__eqtf2>
   11844:	7e22                	ld	t3,40(sp)
   11846:	7362                	ld	t1,56(sp)
   11848:	e111                	bnez	a0,1184c <_vfprintf_r+0x3ec>
   1184a:	d54a                	sw	s2,168(sp)
   1184c:	06100713          	li	a4,97
   11850:	00ee1463          	bne	t3,a4,11858 <_vfprintf_r+0x3f8>
   11854:	4090106f          	j	1345c <_vfprintf_r+0x1ffc>
   11858:	6765                	lui	a4,0x19
   1185a:	54070a93          	addi	s5,a4,1344 # 19540 <__clzdi2+0x90>
   1185e:	02031713          	slli	a4,t1,0x20
   11862:	9301                	srli	a4,a4,0x20
   11864:	0705                	addi	a4,a4,1
   11866:	00ed87b3          	add	a5,s11,a4
   1186a:	fc4e                	sd	s3,56(sp)
   1186c:	f45e                	sd	s7,40(sp)
   1186e:	89ee                	mv	s3,s11
   11870:	893e                	mv	s2,a5
   11872:	ecf2                	sd	t3,88(sp)
   11874:	8d1a                	mv	s10,t1
   11876:	a801                	j	11886 <_vfprintf_r+0x426>
   11878:	4601                	li	a2,0
   1187a:	4681                	li	a3,0
   1187c:	267060ef          	jal	182e2 <__eqtf2>
   11880:	e119                	bnez	a0,11886 <_vfprintf_r+0x426>
   11882:	38f0106f          	j	13410 <_vfprintf_r+0x1fb0>
   11886:	040036b7          	lui	a3,0x4003
   1188a:	1692                	slli	a3,a3,0x24
   1188c:	4601                	li	a2,0
   1188e:	8562                	mv	a0,s8
   11890:	85da                	mv	a1,s6
   11892:	435060ef          	jal	184c6 <__multf3>
   11896:	8b2e                	mv	s6,a1
   11898:	8c2a                	mv	s8,a0
   1189a:	26b070ef          	jal	19304 <__fixtfsi>
   1189e:	00050b9b          	sext.w	s7,a0
   118a2:	855e                	mv	a0,s7
   118a4:	2f7070ef          	jal	1939a <__floatsitf>
   118a8:	86ae                	mv	a3,a1
   118aa:	862a                	mv	a2,a0
   118ac:	85da                	mv	a1,s6
   118ae:	8562                	mv	a0,s8
   118b0:	20c070ef          	jal	18abc <__subtf3>
   118b4:	017a87b3          	add	a5,s5,s7
   118b8:	0007c683          	lbu	a3,0(a5)
   118bc:	87ce                	mv	a5,s3
   118be:	0985                	addi	s3,s3,1
   118c0:	fed98fa3          	sb	a3,-1(s3)
   118c4:	8c2a                	mv	s8,a0
   118c6:	8b2e                	mv	s6,a1
   118c8:	fb3918e3          	bne	s2,s3,11878 <_vfprintf_r+0x418>
   118cc:	6e66                	ld	t3,88(sp)
   118ce:	01fff6b7          	lui	a3,0x1fff
   118d2:	1696                	slli	a3,a3,0x25
   118d4:	4601                	li	a2,0
   118d6:	fcbe                	sd	a5,120(sp)
   118d8:	8d5e                	mv	s10,s7
   118da:	7ba2                	ld	s7,40(sp)
   118dc:	f472                	sd	t3,40(sp)
   118de:	2ad060ef          	jal	1838a <__getf2>
   118e2:	894e                	mv	s2,s3
   118e4:	7e22                	ld	t3,40(sp)
   118e6:	79e2                	ld	s3,56(sp)
   118e8:	77e6                	ld	a5,120(sp)
   118ea:	02a04263          	bgtz	a0,1190e <_vfprintf_r+0x4ae>
   118ee:	01fff6b7          	lui	a3,0x1fff
   118f2:	8562                	mv	a0,s8
   118f4:	85da                	mv	a1,s6
   118f6:	1696                	slli	a3,a3,0x25
   118f8:	4601                	li	a2,0
   118fa:	fc72                	sd	t3,56(sp)
   118fc:	f43e                	sd	a5,40(sp)
   118fe:	1e5060ef          	jal	182e2 <__eqtf2>
   11902:	7e62                	ld	t3,56(sp)
   11904:	e521                	bnez	a0,1194c <_vfprintf_r+0x4ec>
   11906:	001d7713          	andi	a4,s10,1
   1190a:	77a2                	ld	a5,40(sp)
   1190c:	c321                	beqz	a4,1194c <_vfprintf_r+0x4ec>
   1190e:	fd3e                	sd	a5,184(sp)
   11910:	fff94683          	lbu	a3,-1(s2)
   11914:	00fac603          	lbu	a2,15(s5)
   11918:	874a                	mv	a4,s2
   1191a:	00c69e63          	bne	a3,a2,11936 <_vfprintf_r+0x4d6>
   1191e:	03000593          	li	a1,48
   11922:	feb70fa3          	sb	a1,-1(a4)
   11926:	776a                	ld	a4,184(sp)
   11928:	fff70793          	addi	a5,a4,-1
   1192c:	fd3e                	sd	a5,184(sp)
   1192e:	fff74683          	lbu	a3,-1(a4)
   11932:	fec688e3          	beq	a3,a2,11922 <_vfprintf_r+0x4c2>
   11936:	03900613          	li	a2,57
   1193a:	00c69463          	bne	a3,a2,11942 <_vfprintf_r+0x4e2>
   1193e:	33d0106f          	j	1347a <_vfprintf_r+0x201a>
   11942:	2685                	addiw	a3,a3,1 # 1fff001 <__BSS_END__+0x1fe3191>
   11944:	0ff6f693          	zext.b	a3,a3
   11948:	fed70fa3          	sb	a3,-1(a4)
   1194c:	5c2a                	lw	s8,168(sp)
   1194e:	41b907bb          	subw	a5,s2,s11
   11952:	06100613          	li	a2,97
   11956:	fffc069b          	addiw	a3,s8,-1
   1195a:	f43e                	sd	a5,40(sp)
   1195c:	d536                	sw	a3,168(sp)
   1195e:	8736                	mv	a4,a3
   11960:	00ce1463          	bne	t3,a2,11968 <_vfprintf_r+0x508>
   11964:	2e70106f          	j	1344a <_vfprintf_r+0x1fea>
   11968:	04100593          	li	a1,65
   1196c:	05000613          	li	a2,80
   11970:	00be0463          	beq	t3,a1,11978 <_vfprintf_r+0x518>
   11974:	6220106f          	j	12f96 <_vfprintf_r+0x1b36>
   11978:	0ac10823          	sb	a2,176(sp)
   1197c:	0006d463          	bgez	a3,11984 <_vfprintf_r+0x524>
   11980:	53e0106f          	j	12ebe <_vfprintf_r+0x1a5e>
   11984:	02b00613          	li	a2,43
   11988:	0ac108a3          	sb	a2,177(sp)
   1198c:	4625                	li	a2,9
   1198e:	00d64463          	blt	a2,a3,11996 <_vfprintf_r+0x536>
   11992:	5440106f          	j	12ed6 <_vfprintf_r+0x1a76>
   11996:	0bf10893          	addi	a7,sp,191
   1199a:	66666837          	lui	a6,0x66666
   1199e:	85c6                	mv	a1,a7
   119a0:	66780813          	addi	a6,a6,1639 # 66666667 <__BSS_END__+0x6664a7f7>
   119a4:	06300313          	li	t1,99
   119a8:	030706b3          	mul	a3,a4,a6
   119ac:	41f7579b          	sraiw	a5,a4,0x1f
   119b0:	862e                	mv	a2,a1
   119b2:	853a                	mv	a0,a4
   119b4:	15fd                	addi	a1,a1,-1
   119b6:	9689                	srai	a3,a3,0x22
   119b8:	9e9d                	subw	a3,a3,a5
   119ba:	0026979b          	slliw	a5,a3,0x2
   119be:	9fb5                	addw	a5,a5,a3
   119c0:	0017979b          	slliw	a5,a5,0x1
   119c4:	40f707bb          	subw	a5,a4,a5
   119c8:	0307879b          	addiw	a5,a5,48
   119cc:	fef60fa3          	sb	a5,-1(a2)
   119d0:	8736                	mv	a4,a3
   119d2:	fca34be3          	blt	t1,a0,119a8 <_vfprintf_r+0x548>
   119d6:	0306871b          	addiw	a4,a3,48
   119da:	fee58fa3          	sb	a4,-1(a1)
   119de:	ffe60713          	addi	a4,a2,-2
   119e2:	01176463          	bltu	a4,a7,119ea <_vfprintf_r+0x58a>
   119e6:	2cf0106f          	j	134b4 <_vfprintf_r+0x2054>
   119ea:	0b210513          	addi	a0,sp,178
   119ee:	86aa                	mv	a3,a0
   119f0:	00074783          	lbu	a5,0(a4)
   119f4:	0705                	addi	a4,a4,1
   119f6:	0685                	addi	a3,a3,1
   119f8:	fef68fa3          	sb	a5,-1(a3)
   119fc:	ff171ae3          	bne	a4,a7,119f0 <_vfprintf_r+0x590>
   11a00:	972a                	add	a4,a4,a0
   11a02:	0709                	addi	a4,a4,2
   11a04:	8f11                	sub	a4,a4,a2
   11a06:	1914                	addi	a3,sp,176
   11a08:	40d707bb          	subw	a5,a4,a3
   11a0c:	ecbe                	sd	a5,88(sp)
   11a0e:	77a2                	ld	a5,40(sp)
   11a10:	6766                	ld	a4,88(sp)
   11a12:	4685                	li	a3,1
   11a14:	9f3d                	addw	a4,a4,a5
   11a16:	8aba                	mv	s5,a4
   11a18:	00f6c463          	blt	a3,a5,11a20 <_vfprintf_r+0x5c0>
   11a1c:	0d70106f          	j	132f2 <_vfprintf_r+0x1e92>
   11a20:	6786                	ld	a5,64(sp)
   11a22:	00e78abb          	addw	s5,a5,a4
   11a26:	77c2                	ld	a5,48(sp)
   11a28:	8856                	mv	a6,s5
   11a2a:	bff7ff13          	andi	t5,a5,-1025
   11a2e:	2f01                	sext.w	t5,t5
   11a30:	100f6f13          	ori	t5,t5,256
   11a34:	000ad363          	bgez	s5,11a3a <_vfprintf_r+0x5da>
   11a38:	4801                	li	a6,0
   11a3a:	00080d1b          	sext.w	s10,a6
   11a3e:	fc02                	sd	zero,56(sp)
   11a40:	f802                	sd	zero,48(sp)
   11a42:	4c01                	li	s8,0
   11a44:	67c6                	ld	a5,80(sp)
   11a46:	002f7613          	andi	a2,t5,2
   11a4a:	e399                	bnez	a5,11a50 <_vfprintf_r+0x5f0>
   11a4c:	4a60106f          	j	12ef2 <_vfprintf_r+0x1a92>
   11a50:	02d00513          	li	a0,45
   11a54:	08a10fa3          	sb	a0,159(sp)
   11a58:	2d05                	addiw	s10,s10,1
   11a5a:	4301                	li	t1,0
   11a5c:	b80609e3          	beqz	a2,115ee <_vfprintf_r+0x18e>
   11a60:	7b0e                	ld	s6,224(sp)
   11a62:	45ee                	lw	a1,216(sp)
   11a64:	084f7913          	andi	s2,t5,132
   11a68:	2d09                	addiw	s10,s10,2
   11a6a:	865a                	mv	a2,s6
   11a6c:	86ae                	mv	a3,a1
   11a6e:	56090ee3          	beqz	s2,127ea <_vfprintf_r+0x138a>
   11a72:	4709                	li	a4,2
   11a74:	b80518e3          	bnez	a0,11604 <_vfprintf_r+0x1a4>
   11a78:	b67d                	j	11626 <_vfprintf_r+0x1c6>
   11a7a:	65a2                	ld	a1,8(sp)
   11a7c:	6502                	ld	a0,0(sp)
   11a7e:	0990                	addi	a2,sp,208
   11a80:	e51a                	sd	t1,136(sp)
   11a82:	e17a                	sd	t5,128(sp)
   11a84:	fcf2                	sd	t3,120(sp)
   11a86:	e8ba                	sd	a4,80(sp)
   11a88:	365010ef          	jal	135ec <__sprint_r>
   11a8c:	74051e63          	bnez	a0,121e8 <_vfprintf_r+0xd88>
   11a90:	7b0e                	ld	s6,224(sp)
   11a92:	632a                	ld	t1,136(sp)
   11a94:	6f0a                	ld	t5,128(sp)
   11a96:	7e66                	ld	t3,120(sp)
   11a98:	6746                	ld	a4,80(sp)
   11a9a:	89d2                	mv	s3,s4
   11a9c:	b659                	j	11622 <_vfprintf_r+0x1c2>
   11a9e:	4aee                	lw	s5,216(sp)
   11aa0:	77a2                	ld	a5,40(sp)
   11aa2:	4685                	li	a3,1
   11aa4:	2a85                	addiw	s5,s5,1
   11aa6:	9b36                	add	s6,s6,a3
   11aa8:	8756                	mv	a4,s5
   11aaa:	01098893          	addi	a7,s3,16
   11aae:	1cf6d3e3          	bge	a3,a5,12474 <_vfprintf_r+0x1014>
   11ab2:	4685                	li	a3,1
   11ab4:	00d9b423          	sd	a3,8(s3)
   11ab8:	01b9b023          	sd	s11,0(s3)
   11abc:	f1da                	sd	s6,224(sp)
   11abe:	cdba                	sw	a4,216(sp)
   11ac0:	469d                	li	a3,7
   11ac2:	58e6c6e3          	blt	a3,a4,1284e <_vfprintf_r+0x13ee>
   11ac6:	6786                	ld	a5,64(sp)
   11ac8:	6726                	ld	a4,72(sp)
   11aca:	2a85                	addiw	s5,s5,1
   11acc:	9b3e                	add	s6,s6,a5
   11ace:	00e8b023          	sd	a4,0(a7)
   11ad2:	00f8b423          	sd	a5,8(a7)
   11ad6:	f1da                	sd	s6,224(sp)
   11ad8:	cdd6                	sw	s5,216(sp)
   11ada:	471d                	li	a4,7
   11adc:	08c1                	addi	a7,a7,16
   11ade:	595746e3          	blt	a4,s5,1286a <_vfprintf_r+0x140a>
   11ae2:	77a2                	ld	a5,40(sp)
   11ae4:	650e                	ld	a0,192(sp)
   11ae6:	65ae                	ld	a1,200(sp)
   11ae8:	4601                	li	a2,0
   11aea:	4681                	li	a3,0
   11aec:	fc7a                	sd	t5,56(sp)
   11aee:	f846                	sd	a7,48(sp)
   11af0:	fff7899b          	addiw	s3,a5,-1
   11af4:	7ee060ef          	jal	182e2 <__eqtf2>
   11af8:	78c2                	ld	a7,48(sp)
   11afa:	7f62                	ld	t5,56(sp)
   11afc:	1a0507e3          	beqz	a0,124aa <_vfprintf_r+0x104a>
   11b00:	001d8793          	addi	a5,s11,1
   11b04:	2a85                	addiw	s5,s5,1
   11b06:	9b4e                	add	s6,s6,s3
   11b08:	00f8b023          	sd	a5,0(a7)
   11b0c:	cdd6                	sw	s5,216(sp)
   11b0e:	f1da                	sd	s6,224(sp)
   11b10:	0138b423          	sd	s3,8(a7)
   11b14:	479d                	li	a5,7
   11b16:	1757cce3          	blt	a5,s5,1248e <_vfprintf_r+0x102e>
   11b1a:	08c1                	addi	a7,a7,16
   11b1c:	6766                	ld	a4,88(sp)
   11b1e:	191c                	addi	a5,sp,176
   11b20:	2a85                	addiw	s5,s5,1
   11b22:	9b3a                	add	s6,s6,a4
   11b24:	00f8b023          	sd	a5,0(a7)
   11b28:	f1da                	sd	s6,224(sp)
   11b2a:	cdd6                	sw	s5,216(sp)
   11b2c:	00e8b423          	sd	a4,8(a7)
   11b30:	479d                	li	a5,7
   11b32:	01088993          	addi	s3,a7,16
   11b36:	b357dfe3          	bge	a5,s5,11674 <_vfprintf_r+0x214>
   11b3a:	65a2                	ld	a1,8(sp)
   11b3c:	6502                	ld	a0,0(sp)
   11b3e:	0990                	addi	a2,sp,208
   11b40:	f87a                	sd	t5,48(sp)
   11b42:	2ab010ef          	jal	135ec <__sprint_r>
   11b46:	6a051163          	bnez	a0,121e8 <_vfprintf_r+0xd88>
   11b4a:	7b0e                	ld	s6,224(sp)
   11b4c:	7f42                	ld	t5,48(sp)
   11b4e:	89d2                	mv	s3,s4
   11b50:	b615                	j	11674 <_vfprintf_r+0x214>
   11b52:	6762                	ld	a4,24(sp)
   11b54:	8f4a                	mv	t5,s2
   11b56:	4a85                	li	s5,1
   11b58:	431c                	lw	a5,0(a4)
   11b5a:	08010fa3          	sb	zero,159(sp)
   11b5e:	0ef10423          	sb	a5,232(sp)
   11b62:	00870793          	addi	a5,a4,8
   11b66:	ec3e                	sd	a5,24(sp)
   11b68:	bc9d                	j	115de <_vfprintf_r+0x17e>
   11b6a:	67e2                	ld	a5,24(sp)
   11b6c:	08010fa3          	sb	zero,159(sp)
   11b70:	8f4a                	mv	t5,s2
   11b72:	0007bd83          	ld	s11,0(a5)
   11b76:	00878913          	addi	s2,a5,8
   11b7a:	3a0d86e3          	beqz	s11,12726 <_vfprintf_r+0x12c6>
   11b7e:	6c0b46e3          	bltz	s6,12a4a <_vfprintf_r+0x15ea>
   11b82:	865a                	mv	a2,s6
   11b84:	4581                	li	a1,0
   11b86:	856e                	mv	a0,s11
   11b88:	fc7a                	sd	t5,56(sp)
   11b8a:	f872                	sd	t3,48(sp)
   11b8c:	ec5a                	sd	s6,24(sp)
   11b8e:	1c4020ef          	jal	13d52 <memchr>
   11b92:	f02a                	sd	a0,32(sp)
   11b94:	09f14703          	lbu	a4,159(sp)
   11b98:	6362                	ld	t1,24(sp)
   11b9a:	7e42                	ld	t3,48(sp)
   11b9c:	7f62                	ld	t5,56(sp)
   11b9e:	e119                	bnez	a0,11ba4 <_vfprintf_r+0x744>
   11ba0:	57a0106f          	j	1311a <_vfprintf_r+0x1cba>
   11ba4:	41b50abb          	subw	s5,a0,s11
   11ba8:	86d6                	mv	a3,s5
   11baa:	000ad463          	bgez	s5,11bb2 <_vfprintf_r+0x752>
   11bae:	2500106f          	j	12dfe <_vfprintf_r+0x199e>
   11bb2:	00068d1b          	sext.w	s10,a3
   11bb6:	c319                	beqz	a4,11bbc <_vfprintf_r+0x75c>
   11bb8:	1ee0106f          	j	12da6 <_vfprintf_r+0x1946>
   11bbc:	ec4a                	sd	s2,24(sp)
   11bbe:	7b0e                	ld	s6,224(sp)
   11bc0:	f002                	sd	zero,32(sp)
   11bc2:	fc02                	sd	zero,56(sp)
   11bc4:	f802                	sd	zero,48(sp)
   11bc6:	084f7913          	andi	s2,t5,132
   11bca:	4301                	li	t1,0
   11bcc:	4c01                	li	s8,0
   11bce:	865a                	mv	a2,s6
   11bd0:	a20915e3          	bnez	s2,115fa <_vfprintf_r+0x19a>
   11bd4:	41ac873b          	subw	a4,s9,s10
   11bd8:	00e043e3          	bgtz	a4,123de <_vfprintf_r+0xf7e>
   11bdc:	09f14703          	lbu	a4,159(sp)
   11be0:	a20710e3          	bnez	a4,11600 <_vfprintf_r+0x1a0>
   11be4:	4153033b          	subw	t1,t1,s5
   11be8:	a66055e3          	blez	t1,11652 <_vfprintf_r+0x1f2>
   11bec:	6765                	lui	a4,0x19
   11bee:	466e                	lw	a2,216(sp)
   11bf0:	7d870913          	addi	s2,a4,2008 # 197d8 <zeroes.0>
   11bf4:	0464dd63          	bge	s1,t1,11c4e <_vfprintf_r+0x7ee>
   11bf8:	87ce                	mv	a5,s3
   11bfa:	875a                	mv	a4,s6
   11bfc:	89ca                	mv	s3,s2
   11bfe:	8b56                	mv	s6,s5
   11c00:	469d                	li	a3,7
   11c02:	e8f2                	sd	t3,80(sp)
   11c04:	8afa                	mv	s5,t5
   11c06:	891a                	mv	s2,t1
   11c08:	a021                	j	11c10 <_vfprintf_r+0x7b0>
   11c0a:	3941                	addiw	s2,s2,-16
   11c0c:	0324da63          	bge	s1,s2,11c40 <_vfprintf_r+0x7e0>
   11c10:	0741                	addi	a4,a4,16
   11c12:	2605                	addiw	a2,a2,1
   11c14:	0137b023          	sd	s3,0(a5)
   11c18:	e784                	sd	s1,8(a5)
   11c1a:	f1ba                	sd	a4,224(sp)
   11c1c:	cdb2                	sw	a2,216(sp)
   11c1e:	07c1                	addi	a5,a5,16
   11c20:	fec6d5e3          	bge	a3,a2,11c0a <_vfprintf_r+0x7aa>
   11c24:	65a2                	ld	a1,8(sp)
   11c26:	6502                	ld	a0,0(sp)
   11c28:	0990                	addi	a2,sp,208
   11c2a:	1c3010ef          	jal	135ec <__sprint_r>
   11c2e:	5a051d63          	bnez	a0,121e8 <_vfprintf_r+0xd88>
   11c32:	3941                	addiw	s2,s2,-16
   11c34:	770e                	ld	a4,224(sp)
   11c36:	466e                	lw	a2,216(sp)
   11c38:	87d2                	mv	a5,s4
   11c3a:	469d                	li	a3,7
   11c3c:	fd24cae3          	blt	s1,s2,11c10 <_vfprintf_r+0x7b0>
   11c40:	6e46                	ld	t3,80(sp)
   11c42:	834a                	mv	t1,s2
   11c44:	8f56                	mv	t5,s5
   11c46:	894e                	mv	s2,s3
   11c48:	8ada                	mv	s5,s6
   11c4a:	89be                	mv	s3,a5
   11c4c:	8b3a                	mv	s6,a4
   11c4e:	9b1a                	add	s6,s6,t1
   11c50:	2605                	addiw	a2,a2,1
   11c52:	0129b023          	sd	s2,0(s3)
   11c56:	0069b423          	sd	t1,8(s3)
   11c5a:	f1da                	sd	s6,224(sp)
   11c5c:	cdb2                	sw	a2,216(sp)
   11c5e:	471d                	li	a4,7
   11c60:	09c1                	addi	s3,s3,16
   11c62:	9ec758e3          	bge	a4,a2,11652 <_vfprintf_r+0x1f2>
   11c66:	65a2                	ld	a1,8(sp)
   11c68:	6502                	ld	a0,0(sp)
   11c6a:	0990                	addi	a2,sp,208
   11c6c:	fcfa                	sd	t5,120(sp)
   11c6e:	e8f2                	sd	t3,80(sp)
   11c70:	17d010ef          	jal	135ec <__sprint_r>
   11c74:	56051a63          	bnez	a0,121e8 <_vfprintf_r+0xd88>
   11c78:	7f66                	ld	t5,120(sp)
   11c7a:	7b0e                	ld	s6,224(sp)
   11c7c:	6e46                	ld	t3,80(sp)
   11c7e:	100f7713          	andi	a4,t5,256
   11c82:	89d2                	mv	s3,s4
   11c84:	9c070be3          	beqz	a4,1165a <_vfprintf_r+0x1fa>
   11c88:	06500713          	li	a4,101
   11c8c:	e1c759e3          	bge	a4,t3,11a9e <_vfprintf_r+0x63e>
   11c90:	650e                	ld	a0,192(sp)
   11c92:	65ae                	ld	a1,200(sp)
   11c94:	4601                	li	a2,0
   11c96:	4681                	li	a3,0
   11c98:	e8fa                	sd	t5,80(sp)
   11c9a:	648060ef          	jal	182e2 <__eqtf2>
   11c9e:	6f46                	ld	t5,80(sp)
   11ca0:	62051663          	bnez	a0,122cc <_vfprintf_r+0xe6c>
   11ca4:	47ee                	lw	a5,216(sp)
   11ca6:	6765                	lui	a4,0x19
   11ca8:	56070713          	addi	a4,a4,1376 # 19560 <__clzdi2+0xb0>
   11cac:	0b05                	addi	s6,s6,1
   11cae:	2785                	addiw	a5,a5,1
   11cb0:	4685                	li	a3,1
   11cb2:	00e9b023          	sd	a4,0(s3)
   11cb6:	00d9b423          	sd	a3,8(s3)
   11cba:	f1da                	sd	s6,224(sp)
   11cbc:	cdbe                	sw	a5,216(sp)
   11cbe:	471d                	li	a4,7
   11cc0:	09c1                	addi	s3,s3,16
   11cc2:	4af747e3          	blt	a4,a5,12970 <_vfprintf_r+0x1510>
   11cc6:	57aa                	lw	a5,168(sp)
   11cc8:	7722                	ld	a4,40(sp)
   11cca:	02e7dee3          	bge	a5,a4,12506 <_vfprintf_r+0x10a6>
   11cce:	6706                	ld	a4,64(sp)
   11cd0:	47ee                	lw	a5,216(sp)
   11cd2:	66a6                	ld	a3,72(sp)
   11cd4:	9b3a                	add	s6,s6,a4
   11cd6:	2785                	addiw	a5,a5,1
   11cd8:	00e9b423          	sd	a4,8(s3)
   11cdc:	00d9b023          	sd	a3,0(s3)
   11ce0:	f1da                	sd	s6,224(sp)
   11ce2:	cdbe                	sw	a5,216(sp)
   11ce4:	471d                	li	a4,7
   11ce6:	09c1                	addi	s3,s3,16
   11ce8:	1ef74ee3          	blt	a4,a5,126e4 <_vfprintf_r+0x1284>
   11cec:	77a2                	ld	a5,40(sp)
   11cee:	fff78a9b          	addiw	s5,a5,-1
   11cf2:	995051e3          	blez	s5,11674 <_vfprintf_r+0x214>
   11cf6:	6765                	lui	a4,0x19
   11cf8:	46c1                	li	a3,16
   11cfa:	47ee                	lw	a5,216(sp)
   11cfc:	7d870913          	addi	s2,a4,2008 # 197d8 <zeroes.0>
   11d00:	4956d8e3          	bge	a3,s5,12990 <_vfprintf_r+0x1530>
   11d04:	8c4a                	mv	s8,s2
   11d06:	8336                	mv	t1,a3
   11d08:	8956                	mv	s2,s5
   11d0a:	4d9d                	li	s11,7
   11d0c:	8afa                	mv	s5,t5
   11d0e:	a021                	j	11d16 <_vfprintf_r+0x8b6>
   11d10:	3941                	addiw	s2,s2,-16
   11d12:	47235ce3          	bge	t1,s2,1298a <_vfprintf_r+0x152a>
   11d16:	0b41                	addi	s6,s6,16
   11d18:	2785                	addiw	a5,a5,1
   11d1a:	0189b023          	sd	s8,0(s3)
   11d1e:	00d9b423          	sd	a3,8(s3)
   11d22:	f1da                	sd	s6,224(sp)
   11d24:	cdbe                	sw	a5,216(sp)
   11d26:	09c1                	addi	s3,s3,16
   11d28:	fefdd4e3          	bge	s11,a5,11d10 <_vfprintf_r+0x8b0>
   11d2c:	65a2                	ld	a1,8(sp)
   11d2e:	6502                	ld	a0,0(sp)
   11d30:	0990                	addi	a2,sp,208
   11d32:	0bb010ef          	jal	135ec <__sprint_r>
   11d36:	4a051963          	bnez	a0,121e8 <_vfprintf_r+0xd88>
   11d3a:	4341                	li	t1,16
   11d3c:	7b0e                	ld	s6,224(sp)
   11d3e:	47ee                	lw	a5,216(sp)
   11d40:	89d2                	mv	s3,s4
   11d42:	869a                	mv	a3,t1
   11d44:	b7f1                	j	11d10 <_vfprintf_r+0x8b0>
   11d46:	67e2                	ld	a5,24(sp)
   11d48:	02097713          	andi	a4,s2,32
   11d4c:	8f4a                	mv	t5,s2
   11d4e:	835a                	mv	t1,s6
   11d50:	07a1                	addi	a5,a5,8
   11d52:	ef31                	bnez	a4,11dae <_vfprintf_r+0x94e>
   11d54:	01097713          	andi	a4,s2,16
   11d58:	c319                	beqz	a4,11d5e <_vfprintf_r+0x8fe>
   11d5a:	41c0106f          	j	13176 <_vfprintf_r+0x1d16>
   11d5e:	66e2                	ld	a3,24(sp)
   11d60:	04097713          	andi	a4,s2,64
   11d64:	0006aa83          	lw	s5,0(a3)
   11d68:	52070fe3          	beqz	a4,12aa6 <_vfprintf_r+0x1646>
   11d6c:	010a9a9b          	slliw	s5,s5,0x10
   11d70:	410ada9b          	sraiw	s5,s5,0x10
   11d74:	ec3e                	sd	a5,24(sp)
   11d76:	8756                	mv	a4,s5
   11d78:	04074163          	bltz	a4,11dba <_vfprintf_r+0x95a>
   11d7c:	04034a63          	bltz	t1,11dd0 <_vfprintf_r+0x970>
   11d80:	f7ff7f13          	andi	t5,t5,-129
   11d84:	2f01                	sext.w	t5,t5
   11d86:	040a9563          	bnez	s5,11dd0 <_vfprintf_r+0x970>
   11d8a:	00031463          	bnez	t1,11d92 <_vfprintf_r+0x932>
   11d8e:	7f10006f          	j	12d7e <_vfprintf_r+0x191e>
   11d92:	03000793          	li	a5,48
   11d96:	a0a1                	j	11dde <_vfprintf_r+0x97e>
   11d98:	01096693          	ori	a3,s2,16
   11d9c:	02097f13          	andi	t5,s2,32
   11da0:	835a                	mv	t1,s6
   11da2:	2681                	sext.w	a3,a3
   11da4:	040f03e3          	beqz	t5,125ea <_vfprintf_r+0x118a>
   11da8:	67e2                	ld	a5,24(sp)
   11daa:	8f36                	mv	t5,a3
   11dac:	07a1                	addi	a5,a5,8
   11dae:	6762                	ld	a4,24(sp)
   11db0:	ec3e                	sd	a5,24(sp)
   11db2:	6318                	ld	a4,0(a4)
   11db4:	8aba                	mv	s5,a4
   11db6:	fc0753e3          	bgez	a4,11d7c <_vfprintf_r+0x91c>
   11dba:	02d00793          	li	a5,45
   11dbe:	08f10fa3          	sb	a5,159(sp)
   11dc2:	41500ab3          	neg	s5,s5
   11dc6:	00034563          	bltz	t1,11dd0 <_vfprintf_r+0x970>
   11dca:	f7ff7f13          	andi	t5,t5,-129
   11dce:	2f01                	sext.w	t5,t5
   11dd0:	4da5                	li	s11,9
   11dd2:	775def63          	bltu	s11,s5,12550 <_vfprintf_r+0x10f0>
   11dd6:	030a879b          	addiw	a5,s5,48
   11dda:	0ff7f793          	zext.b	a5,a5
   11dde:	14f105a3          	sb	a5,331(sp)
   11de2:	881a                	mv	a6,t1
   11de4:	00604363          	bgtz	t1,11dea <_vfprintf_r+0x98a>
   11de8:	4805                	li	a6,1
   11dea:	09f14703          	lbu	a4,159(sp)
   11dee:	00080d1b          	sext.w	s10,a6
   11df2:	4a85                	li	s5,1
   11df4:	14b10d93          	addi	s11,sp,331
   11df8:	cf65                	beqz	a4,11ef0 <_vfprintf_r+0xa90>
   11dfa:	2d05                	addiw	s10,s10,1
   11dfc:	f002                	sd	zero,32(sp)
   11dfe:	fc02                	sd	zero,56(sp)
   11e00:	f802                	sd	zero,48(sp)
   11e02:	4c01                	li	s8,0
   11e04:	feaff06f          	j	115ee <_vfprintf_r+0x18e>
   11e08:	67e2                	ld	a5,24(sp)
   11e0a:	0007ac83          	lw	s9,0(a5)
   11e0e:	07a1                	addi	a5,a5,8
   11e10:	700cd163          	bgez	s9,12512 <_vfprintf_r+0x10b2>
   11e14:	41900cbb          	negw	s9,s9
   11e18:	ec3e                	sd	a5,24(sp)
   11e1a:	00496f13          	ori	t5,s2,4
   11e1e:	000bce03          	lbu	t3,0(s7)
   11e22:	000f091b          	sext.w	s2,t5
   11e26:	f56ff06f          	j	1157c <_vfprintf_r+0x11c>
   11e2a:	66e2                	ld	a3,24(sp)
   11e2c:	01096793          	ori	a5,s2,16
   11e30:	08010fa3          	sb	zero,159(sp)
   11e34:	835a                	mv	t1,s6
   11e36:	0006ba83          	ld	s5,0(a3)
   11e3a:	2781                	sext.w	a5,a5
   11e3c:	00868713          	addi	a4,a3,8
   11e40:	70034363          	bltz	t1,12546 <_vfprintf_r+0x10e6>
   11e44:	f7f7f793          	andi	a5,a5,-129
   11e48:	00078f1b          	sext.w	t5,a5
   11e4c:	140a9b63          	bnez	s5,11fa2 <_vfprintf_r+0xb42>
   11e50:	ec3a                	sd	a4,24(sp)
   11e52:	24030ce3          	beqz	t1,128aa <_vfprintf_r+0x144a>
   11e56:	4a81                	li	s5,0
   11e58:	bfbd                	j	11dd6 <_vfprintf_r+0x976>
   11e5a:	67e2                	ld	a5,24(sp)
   11e5c:	01096813          	ori	a6,s2,16
   11e60:	835a                	mv	t1,s6
   11e62:	2801                	sext.w	a6,a6
   11e64:	07a1                	addi	a5,a5,8
   11e66:	6762                	ld	a4,24(sp)
   11e68:	6318                	ld	a4,0(a4)
   11e6a:	ec3e                	sd	a5,24(sp)
   11e6c:	08010fa3          	sb	zero,159(sp)
   11e70:	02034463          	bltz	t1,11e98 <_vfprintf_r+0xa38>
   11e74:	b7f87f13          	andi	t5,a6,-1153
   11e78:	2f01                	sext.w	t5,t5
   11e7a:	e31d                	bnez	a4,11ea0 <_vfprintf_r+0xa40>
   11e7c:	02031263          	bnez	t1,11ea0 <_vfprintf_r+0xa40>
   11e80:	00187d13          	andi	s10,a6,1
   11e84:	2a0d0be3          	beqz	s10,1293a <_vfprintf_r+0x14da>
   11e88:	03000793          	li	a5,48
   11e8c:	14f105a3          	sb	a5,331(sp)
   11e90:	8aea                	mv	s5,s10
   11e92:	14b10d93          	addi	s11,sp,331
   11e96:	a8a9                	j	11ef0 <_vfprintf_r+0xa90>
   11e98:	bff87813          	andi	a6,a6,-1025
   11e9c:	00080f1b          	sext.w	t5,a6
   11ea0:	14c10913          	addi	s2,sp,332
   11ea4:	8dca                	mv	s11,s2
   11ea6:	00777693          	andi	a3,a4,7
   11eaa:	866e                	mv	a2,s11
   11eac:	03068693          	addi	a3,a3,48
   11eb0:	830d                	srli	a4,a4,0x3
   11eb2:	fedd8fa3          	sb	a3,-1(s11)
   11eb6:	1dfd                	addi	s11,s11,-1
   11eb8:	f77d                	bnez	a4,11ea6 <_vfprintf_r+0xa46>
   11eba:	001f7713          	andi	a4,t5,1
   11ebe:	c315                	beqz	a4,11ee2 <_vfprintf_r+0xa82>
   11ec0:	03000713          	li	a4,48
   11ec4:	00e68f63          	beq	a3,a4,11ee2 <_vfprintf_r+0xa82>
   11ec8:	1679                	addi	a2,a2,-2
   11eca:	40c90abb          	subw	s5,s2,a2
   11ece:	feed8fa3          	sb	a4,-1(s11)
   11ed2:	881a                	mv	a6,t1
   11ed4:	01535363          	bge	t1,s5,11eda <_vfprintf_r+0xa7a>
   11ed8:	8856                	mv	a6,s5
   11eda:	00080d1b          	sext.w	s10,a6
   11ede:	8db2                	mv	s11,a2
   11ee0:	a801                	j	11ef0 <_vfprintf_r+0xa90>
   11ee2:	41b90abb          	subw	s5,s2,s11
   11ee6:	881a                	mv	a6,t1
   11ee8:	61534d63          	blt	t1,s5,12502 <_vfprintf_r+0x10a2>
   11eec:	00080d1b          	sext.w	s10,a6
   11ef0:	f002                	sd	zero,32(sp)
   11ef2:	fc02                	sd	zero,56(sp)
   11ef4:	f802                	sd	zero,48(sp)
   11ef6:	4c01                	li	s8,0
   11ef8:	ef6ff06f          	j	115ee <_vfprintf_r+0x18e>
   11efc:	000bce03          	lbu	t3,0(s7)
   11f00:	06800793          	li	a5,104
   11f04:	00fe06e3          	beq	t3,a5,12710 <_vfprintf_r+0x12b0>
   11f08:	04096f13          	ori	t5,s2,64
   11f0c:	000f091b          	sext.w	s2,t5
   11f10:	e6cff06f          	j	1157c <_vfprintf_r+0x11c>
   11f14:	66e2                	ld	a3,24(sp)
   11f16:	02097793          	andi	a5,s2,32
   11f1a:	6298                	ld	a4,0(a3)
   11f1c:	06a1                	addi	a3,a3,8
   11f1e:	ec36                	sd	a3,24(sp)
   11f20:	60079263          	bnez	a5,12524 <_vfprintf_r+0x10c4>
   11f24:	01097793          	andi	a5,s2,16
   11f28:	5e079e63          	bnez	a5,12524 <_vfprintf_r+0x10c4>
   11f2c:	04097793          	andi	a5,s2,64
   11f30:	700790e3          	bnez	a5,12e30 <_vfprintf_r+0x19d0>
   11f34:	20097f13          	andi	t5,s2,512
   11f38:	67c2                	ld	a5,16(sp)
   11f3a:	000f1463          	bnez	t5,11f42 <_vfprintf_r+0xae2>
   11f3e:	3200106f          	j	1325e <_vfprintf_r+0x1dfe>
   11f42:	00f70023          	sb	a5,0(a4)
   11f46:	8dde                	mv	s11,s7
   11f48:	f60ff06f          	j	116a8 <_vfprintf_r+0x248>
   11f4c:	000bce03          	lbu	t3,0(s7)
   11f50:	06c00793          	li	a5,108
   11f54:	7afe0563          	beq	t3,a5,126fe <_vfprintf_r+0x129e>
   11f58:	01096f13          	ori	t5,s2,16
   11f5c:	000f091b          	sext.w	s2,t5
   11f60:	e1cff06f          	j	1157c <_vfprintf_r+0x11c>
   11f64:	02097793          	andi	a5,s2,32
   11f68:	8f4a                	mv	t5,s2
   11f6a:	835a                	mv	t1,s6
   11f6c:	5c079363          	bnez	a5,12532 <_vfprintf_r+0x10d2>
   11f70:	01097793          	andi	a5,s2,16
   11f74:	5a079f63          	bnez	a5,12532 <_vfprintf_r+0x10d2>
   11f78:	66e2                	ld	a3,24(sp)
   11f7a:	04097793          	andi	a5,s2,64
   11f7e:	0006aa83          	lw	s5,0(a3)
   11f82:	00868713          	addi	a4,a3,8
   11f86:	32078ce3          	beqz	a5,12abe <_vfprintf_r+0x165e>
   11f8a:	1ac2                	slli	s5,s5,0x30
   11f8c:	08010fa3          	sb	zero,159(sp)
   11f90:	030ada93          	srli	s5,s5,0x30
   11f94:	000b4763          	bltz	s6,11fa2 <_vfprintf_r+0xb42>
   11f98:	f7ff7f13          	andi	t5,t5,-129
   11f9c:	2f01                	sext.w	t5,t5
   11f9e:	ea0a89e3          	beqz	s5,11e50 <_vfprintf_r+0x9f0>
   11fa2:	ec3a                	sd	a4,24(sp)
   11fa4:	b535                	j	11dd0 <_vfprintf_r+0x970>
   11fa6:	02096f13          	ori	t5,s2,32
   11faa:	000bce03          	lbu	t3,0(s7)
   11fae:	000f091b          	sext.w	s2,t5
   11fb2:	dcaff06f          	j	1157c <_vfprintf_r+0x11c>
   11fb6:	66e2                	ld	a3,24(sp)
   11fb8:	67a1                	lui	a5,0x8
   11fba:	83078793          	addi	a5,a5,-2000 # 7830 <exit-0x88f0>
   11fbe:	6298                	ld	a4,0(a3)
   11fc0:	0af11023          	sh	a5,160(sp)
   11fc4:	08010fa3          	sb	zero,159(sp)
   11fc8:	f03a                	sd	a4,32(sp)
   11fca:	835a                	mv	t1,s6
   11fcc:	00868793          	addi	a5,a3,8
   11fd0:	620b4663          	bltz	s6,125fc <_vfprintf_r+0x119c>
   11fd4:	f7f97693          	andi	a3,s2,-129
   11fd8:	2681                	sext.w	a3,a3
   11fda:	0026e513          	ori	a0,a3,2
   11fde:	200716e3          	bnez	a4,129ea <_vfprintf_r+0x158a>
   11fe2:	5c0b18e3          	bnez	s6,12db2 <_vfprintf_r+0x1952>
   11fe6:	7b0e                	ld	s6,224(sp)
   11fe8:	45ee                	lw	a1,216(sp)
   11fea:	00497713          	andi	a4,s2,4
   11fee:	f83a                	sd	a4,48(sp)
   11ff0:	865a                	mv	a2,s6
   11ff2:	86ae                	mv	a3,a1
   11ff4:	7e070063          	beqz	a4,127d4 <_vfprintf_r+0x1374>
   11ff8:	ec3e                	sd	a5,24(sp)
   11ffa:	8f2a                	mv	t5,a0
   11ffc:	4a81                	li	s5,0
   11ffe:	fc02                	sd	zero,56(sp)
   12000:	f802                	sd	zero,48(sp)
   12002:	4c01                	li	s8,0
   12004:	4d09                	li	s10,2
   12006:	14c10d93          	addi	s11,sp,332
   1200a:	07800e13          	li	t3,120
   1200e:	4911                	li	s2,4
   12010:	e16ff06f          	j	11626 <_vfprintf_r+0x1c6>
   12014:	67e2                	ld	a5,24(sp)
   12016:	02097713          	andi	a4,s2,32
   1201a:	8f4a                	mv	t5,s2
   1201c:	835a                	mv	t1,s6
   1201e:	07a1                	addi	a5,a5,8
   12020:	50071763          	bnez	a4,1252e <_vfprintf_r+0x10ce>
   12024:	01097713          	andi	a4,s2,16
   12028:	50071363          	bnez	a4,1252e <_vfprintf_r+0x10ce>
   1202c:	6762                	ld	a4,24(sp)
   1202e:	04097693          	andi	a3,s2,64
   12032:	4318                	lw	a4,0(a4)
   12034:	2a0688e3          	beqz	a3,12ae4 <_vfprintf_r+0x1684>
   12038:	1742                	slli	a4,a4,0x30
   1203a:	9341                	srli	a4,a4,0x30
   1203c:	ec3e                	sd	a5,24(sp)
   1203e:	884a                	mv	a6,s2
   12040:	b535                	j	11e6c <_vfprintf_r+0xa0c>
   12042:	00896f13          	ori	t5,s2,8
   12046:	000bce03          	lbu	t3,0(s7)
   1204a:	000f091b          	sext.w	s2,t5
   1204e:	d2eff06f          	j	1157c <_vfprintf_r+0x11c>
   12052:	6c02                	ld	s8,0(sp)
   12054:	8562                	mv	a0,s8
   12056:	633010ef          	jal	13e88 <_localeconv_r>
   1205a:	651c                	ld	a5,8(a0)
   1205c:	853e                	mv	a0,a5
   1205e:	f0be                	sd	a5,96(sp)
   12060:	03a020ef          	jal	1409a <strlen>
   12064:	87aa                	mv	a5,a0
   12066:	8562                	mv	a0,s8
   12068:	f8be                	sd	a5,112(sp)
   1206a:	8c3e                	mv	s8,a5
   1206c:	61d010ef          	jal	13e88 <_localeconv_r>
   12070:	691c                	ld	a5,16(a0)
   12072:	000bce03          	lbu	t3,0(s7)
   12076:	f4be                	sd	a5,104(sp)
   12078:	d00c0263          	beqz	s8,1157c <_vfprintf_r+0x11c>
   1207c:	d0078063          	beqz	a5,1157c <_vfprintf_r+0x11c>
   12080:	0007c783          	lbu	a5,0(a5)
   12084:	ce078c63          	beqz	a5,1157c <_vfprintf_r+0x11c>
   12088:	40096f13          	ori	t5,s2,1024
   1208c:	000f091b          	sext.w	s2,t5
   12090:	cecff06f          	j	1157c <_vfprintf_r+0x11c>
   12094:	00196f13          	ori	t5,s2,1
   12098:	000bce03          	lbu	t3,0(s7)
   1209c:	000f091b          	sext.w	s2,t5
   120a0:	cdcff06f          	j	1157c <_vfprintf_r+0x11c>
   120a4:	09f14783          	lbu	a5,159(sp)
   120a8:	000bce03          	lbu	t3,0(s7)
   120ac:	cc079863          	bnez	a5,1157c <_vfprintf_r+0x11c>
   120b0:	02000793          	li	a5,32
   120b4:	08f10fa3          	sb	a5,159(sp)
   120b8:	cc4ff06f          	j	1157c <_vfprintf_r+0x11c>
   120bc:	08096f13          	ori	t5,s2,128
   120c0:	000bce03          	lbu	t3,0(s7)
   120c4:	000f091b          	sext.w	s2,t5
   120c8:	cb4ff06f          	j	1157c <_vfprintf_r+0x11c>
   120cc:	02b00793          	li	a5,43
   120d0:	000bce03          	lbu	t3,0(s7)
   120d4:	08f10fa3          	sb	a5,159(sp)
   120d8:	ca4ff06f          	j	1157c <_vfprintf_r+0x11c>
   120dc:	000bce03          	lbu	t3,0(s7)
   120e0:	02a00793          	li	a5,42
   120e4:	001b8613          	addi	a2,s7,1
   120e8:	00fe1463          	bne	t3,a5,120f0 <_vfprintf_r+0xc90>
   120ec:	3aa0106f          	j	13496 <_vfprintf_r+0x2036>
   120f0:	fd0e071b          	addiw	a4,t3,-48
   120f4:	45a5                	li	a1,9
   120f6:	4681                	li	a3,0
   120f8:	8bb2                	mv	s7,a2
   120fa:	4b01                	li	s6,0
   120fc:	c8e5e263          	bltu	a1,a4,11580 <_vfprintf_r+0x120>
   12100:	0026979b          	slliw	a5,a3,0x2
   12104:	00064e03          	lbu	t3,0(a2)
   12108:	9fb5                	addw	a5,a5,a3
   1210a:	0017979b          	slliw	a5,a5,0x1
   1210e:	00e786bb          	addw	a3,a5,a4
   12112:	fd0e071b          	addiw	a4,t3,-48
   12116:	0605                	addi	a2,a2,1
   12118:	fee5f4e3          	bgeu	a1,a4,12100 <_vfprintf_r+0xca0>
   1211c:	8336                	mv	t1,a3
   1211e:	5406ca63          	bltz	a3,12672 <_vfprintf_r+0x1212>
   12122:	00030b1b          	sext.w	s6,t1
   12126:	8bb2                	mv	s7,a2
   12128:	c58ff06f          	j	11580 <_vfprintf_r+0x120>
   1212c:	41ac86bb          	subw	a3,s9,s10
   12130:	d0d05d63          	blez	a3,1164a <_vfprintf_r+0x1ea>
   12134:	6765                	lui	a4,0x19
   12136:	4fc1                	li	t6,16
   12138:	466e                	lw	a2,216(sp)
   1213a:	7d870913          	addi	s2,a4,2008 # 197d8 <zeroes.0>
   1213e:	06dfd263          	bge	t6,a3,121a2 <_vfprintf_r+0xd42>
   12142:	87ce                	mv	a5,s3
   12144:	875a                	mv	a4,s6
   12146:	89ca                	mv	s3,s2
   12148:	8b56                	mv	s6,s5
   1214a:	83fe                	mv	t2,t6
   1214c:	429d                	li	t0,7
   1214e:	e8f2                	sd	t3,80(sp)
   12150:	fcfa                	sd	t5,120(sp)
   12152:	8a9a                	mv	s5,t1
   12154:	8936                	mv	s2,a3
   12156:	a021                	j	1215e <_vfprintf_r+0xcfe>
   12158:	3941                	addiw	s2,s2,-16
   1215a:	0323dc63          	bge	t2,s2,12192 <_vfprintf_r+0xd32>
   1215e:	0741                	addi	a4,a4,16
   12160:	2605                	addiw	a2,a2,1
   12162:	0137b023          	sd	s3,0(a5)
   12166:	01f7b423          	sd	t6,8(a5)
   1216a:	f1ba                	sd	a4,224(sp)
   1216c:	cdb2                	sw	a2,216(sp)
   1216e:	07c1                	addi	a5,a5,16
   12170:	fec2d4e3          	bge	t0,a2,12158 <_vfprintf_r+0xcf8>
   12174:	65a2                	ld	a1,8(sp)
   12176:	6502                	ld	a0,0(sp)
   12178:	0990                	addi	a2,sp,208
   1217a:	472010ef          	jal	135ec <__sprint_r>
   1217e:	e52d                	bnez	a0,121e8 <_vfprintf_r+0xd88>
   12180:	43c1                	li	t2,16
   12182:	3941                	addiw	s2,s2,-16
   12184:	770e                	ld	a4,224(sp)
   12186:	466e                	lw	a2,216(sp)
   12188:	87d2                	mv	a5,s4
   1218a:	429d                	li	t0,7
   1218c:	8f9e                	mv	t6,t2
   1218e:	fd23c8e3          	blt	t2,s2,1215e <_vfprintf_r+0xcfe>
   12192:	6e46                	ld	t3,80(sp)
   12194:	7f66                	ld	t5,120(sp)
   12196:	86ca                	mv	a3,s2
   12198:	8356                	mv	t1,s5
   1219a:	894e                	mv	s2,s3
   1219c:	8ada                	mv	s5,s6
   1219e:	89be                	mv	s3,a5
   121a0:	8b3a                	mv	s6,a4
   121a2:	9b36                	add	s6,s6,a3
   121a4:	2605                	addiw	a2,a2,1
   121a6:	0129b023          	sd	s2,0(s3)
   121aa:	00d9b423          	sd	a3,8(s3)
   121ae:	f1da                	sd	s6,224(sp)
   121b0:	cdb2                	sw	a2,216(sp)
   121b2:	471d                	li	a4,7
   121b4:	09c1                	addi	s3,s3,16
   121b6:	c8c75a63          	bge	a4,a2,1164a <_vfprintf_r+0x1ea>
   121ba:	65a2                	ld	a1,8(sp)
   121bc:	6502                	ld	a0,0(sp)
   121be:	0990                	addi	a2,sp,208
   121c0:	e11a                	sd	t1,128(sp)
   121c2:	fcfa                	sd	t5,120(sp)
   121c4:	e8f2                	sd	t3,80(sp)
   121c6:	426010ef          	jal	135ec <__sprint_r>
   121ca:	ed19                	bnez	a0,121e8 <_vfprintf_r+0xd88>
   121cc:	7b0e                	ld	s6,224(sp)
   121ce:	6e46                	ld	t3,80(sp)
   121d0:	7f66                	ld	t5,120(sp)
   121d2:	630a                	ld	t1,128(sp)
   121d4:	89d2                	mv	s3,s4
   121d6:	c74ff06f          	j	1164a <_vfprintf_r+0x1ea>
   121da:	65a2                	ld	a1,8(sp)
   121dc:	6502                	ld	a0,0(sp)
   121de:	0990                	addi	a2,sp,208
   121e0:	40c010ef          	jal	135ec <__sprint_r>
   121e4:	ca050963          	beqz	a0,11696 <_vfprintf_r+0x236>
   121e8:	6922                	ld	s2,8(sp)
   121ea:	7582                	ld	a1,32(sp)
   121ec:	c581                	beqz	a1,121f4 <_vfprintf_r+0xd94>
   121ee:	6502                	ld	a0,0(sp)
   121f0:	82cff0ef          	jal	1121c <_free_r>
   121f4:	01095783          	lhu	a5,16(s2)
   121f8:	22813483          	ld	s1,552(sp)
   121fc:	21813983          	ld	s3,536(sp)
   12200:	0407f793          	andi	a5,a5,64
   12204:	21013a03          	ld	s4,528(sp)
   12208:	20013b03          	ld	s6,512(sp)
   1220c:	7bfe                	ld	s7,504(sp)
   1220e:	7c5e                	ld	s8,496(sp)
   12210:	7cbe                	ld	s9,488(sp)
   12212:	7d1e                	ld	s10,480(sp)
   12214:	6dfe                	ld	s11,472(sp)
   12216:	d0079c63          	bnez	a5,1172e <_vfprintf_r+0x2ce>
   1221a:	23813083          	ld	ra,568(sp)
   1221e:	23013403          	ld	s0,560(sp)
   12222:	6542                	ld	a0,16(sp)
   12224:	22013903          	ld	s2,544(sp)
   12228:	20813a83          	ld	s5,520(sp)
   1222c:	24010113          	addi	sp,sp,576
   12230:	8082                	ret
   12232:	65a2                	ld	a1,8(sp)
   12234:	6502                	ld	a0,0(sp)
   12236:	0990                	addi	a2,sp,208
   12238:	e11a                	sd	t1,128(sp)
   1223a:	fcfa                	sd	t5,120(sp)
   1223c:	e8f2                	sd	t3,80(sp)
   1223e:	3ae010ef          	jal	135ec <__sprint_r>
   12242:	f15d                	bnez	a0,121e8 <_vfprintf_r+0xd88>
   12244:	7b0e                	ld	s6,224(sp)
   12246:	630a                	ld	t1,128(sp)
   12248:	7f66                	ld	t5,120(sp)
   1224a:	6e46                	ld	t3,80(sp)
   1224c:	89d2                	mv	s3,s4
   1224e:	bf4ff06f          	j	11642 <_vfprintf_r+0x1e2>
   12252:	66e5                	lui	a3,0x19
   12254:	4741                	li	a4,16
   12256:	47ee                	lw	a5,216(sp)
   12258:	7e868693          	addi	a3,a3,2024 # 197e8 <blanks.1>
   1225c:	05575463          	bge	a4,s5,122a4 <_vfprintf_r+0xe44>
   12260:	8956                	mv	s2,s5
   12262:	8dba                	mv	s11,a4
   12264:	4c1d                	li	s8,7
   12266:	8ab6                	mv	s5,a3
   12268:	a021                	j	12270 <_vfprintf_r+0xe10>
   1226a:	3941                	addiw	s2,s2,-16
   1226c:	032dda63          	bge	s11,s2,122a0 <_vfprintf_r+0xe40>
   12270:	0b41                	addi	s6,s6,16
   12272:	2785                	addiw	a5,a5,1
   12274:	0159b023          	sd	s5,0(s3)
   12278:	00e9b423          	sd	a4,8(s3)
   1227c:	f1da                	sd	s6,224(sp)
   1227e:	cdbe                	sw	a5,216(sp)
   12280:	09c1                	addi	s3,s3,16
   12282:	fefc54e3          	bge	s8,a5,1226a <_vfprintf_r+0xe0a>
   12286:	65a2                	ld	a1,8(sp)
   12288:	6502                	ld	a0,0(sp)
   1228a:	0990                	addi	a2,sp,208
   1228c:	360010ef          	jal	135ec <__sprint_r>
   12290:	fd21                	bnez	a0,121e8 <_vfprintf_r+0xd88>
   12292:	3941                	addiw	s2,s2,-16
   12294:	7b0e                	ld	s6,224(sp)
   12296:	47ee                	lw	a5,216(sp)
   12298:	89d2                	mv	s3,s4
   1229a:	4741                	li	a4,16
   1229c:	fd2dcae3          	blt	s11,s2,12270 <_vfprintf_r+0xe10>
   122a0:	86d6                	mv	a3,s5
   122a2:	8aca                	mv	s5,s2
   122a4:	9b56                	add	s6,s6,s5
   122a6:	2785                	addiw	a5,a5,1
   122a8:	f1da                	sd	s6,224(sp)
   122aa:	cdbe                	sw	a5,216(sp)
   122ac:	00d9b023          	sd	a3,0(s3)
   122b0:	0159b423          	sd	s5,8(s3)
   122b4:	471d                	li	a4,7
   122b6:	bcf75763          	bge	a4,a5,11684 <_vfprintf_r+0x224>
   122ba:	65a2                	ld	a1,8(sp)
   122bc:	6502                	ld	a0,0(sp)
   122be:	0990                	addi	a2,sp,208
   122c0:	32c010ef          	jal	135ec <__sprint_r>
   122c4:	f115                	bnez	a0,121e8 <_vfprintf_r+0xd88>
   122c6:	7b0e                	ld	s6,224(sp)
   122c8:	bbcff06f          	j	11684 <_vfprintf_r+0x224>
   122cc:	562a                	lw	a2,168(sp)
   122ce:	5ec05363          	blez	a2,128b4 <_vfprintf_r+0x1454>
   122d2:	77a2                	ld	a5,40(sp)
   122d4:	8762                	mv	a4,s8
   122d6:	3987c863          	blt	a5,s8,12666 <_vfprintf_r+0x1206>
   122da:	0007091b          	sext.w	s2,a4
   122de:	01205f63          	blez	s2,122fc <_vfprintf_r+0xe9c>
   122e2:	46ee                	lw	a3,216(sp)
   122e4:	9b4a                	add	s6,s6,s2
   122e6:	01b9b023          	sd	s11,0(s3)
   122ea:	2685                	addiw	a3,a3,1
   122ec:	0129b423          	sd	s2,8(s3)
   122f0:	f1da                	sd	s6,224(sp)
   122f2:	cdb6                	sw	a3,216(sp)
   122f4:	461d                	li	a2,7
   122f6:	09c1                	addi	s3,s3,16
   122f8:	28d64ae3          	blt	a2,a3,12d8c <_vfprintf_r+0x192c>
   122fc:	86ca                	mv	a3,s2
   122fe:	42094263          	bltz	s2,12722 <_vfprintf_r+0x12c2>
   12302:	40dc0abb          	subw	s5,s8,a3
   12306:	43504d63          	bgtz	s5,12740 <_vfprintf_r+0x12e0>
   1230a:	400f7713          	andi	a4,t5,1024
   1230e:	018d8933          	add	s2,s11,s8
   12312:	0c0710e3          	bnez	a4,12bd2 <_vfprintf_r+0x1772>
   12316:	5aaa                	lw	s5,168(sp)
   12318:	77a2                	ld	a5,40(sp)
   1231a:	00fac663          	blt	s5,a5,12326 <_vfprintf_r+0xec6>
   1231e:	001f7713          	andi	a4,t5,1
   12322:	2a070ae3          	beqz	a4,12dd6 <_vfprintf_r+0x1976>
   12326:	476e                	lw	a4,216(sp)
   12328:	6786                	ld	a5,64(sp)
   1232a:	66a6                	ld	a3,72(sp)
   1232c:	2705                	addiw	a4,a4,1
   1232e:	9b3e                	add	s6,s6,a5
   12330:	00d9b023          	sd	a3,0(s3)
   12334:	00f9b423          	sd	a5,8(s3)
   12338:	f1da                	sd	s6,224(sp)
   1233a:	cdba                	sw	a4,216(sp)
   1233c:	469d                	li	a3,7
   1233e:	09c1                	addi	s3,s3,16
   12340:	58e6c0e3          	blt	a3,a4,130c0 <_vfprintf_r+0x1c60>
   12344:	7722                	ld	a4,40(sp)
   12346:	00ed87b3          	add	a5,s11,a4
   1234a:	412787b3          	sub	a5,a5,s2
   1234e:	4157073b          	subw	a4,a4,s5
   12352:	0007869b          	sext.w	a3,a5
   12356:	00d75363          	bge	a4,a3,1235c <_vfprintf_r+0xefc>
   1235a:	87ba                	mv	a5,a4
   1235c:	00078a9b          	sext.w	s5,a5
   12360:	01505f63          	blez	s5,1237e <_vfprintf_r+0xf1e>
   12364:	47ee                	lw	a5,216(sp)
   12366:	9b56                	add	s6,s6,s5
   12368:	0129b023          	sd	s2,0(s3)
   1236c:	2785                	addiw	a5,a5,1
   1236e:	0159b423          	sd	s5,8(s3)
   12372:	f1da                	sd	s6,224(sp)
   12374:	cdbe                	sw	a5,216(sp)
   12376:	469d                	li	a3,7
   12378:	09c1                	addi	s3,s3,16
   1237a:	5af6cce3          	blt	a3,a5,13132 <_vfprintf_r+0x1cd2>
   1237e:	87d6                	mv	a5,s5
   12380:	000ad363          	bgez	s5,12386 <_vfprintf_r+0xf26>
   12384:	4781                	li	a5,0
   12386:	40f70abb          	subw	s5,a4,a5
   1238a:	af505563          	blez	s5,11674 <_vfprintf_r+0x214>
   1238e:	6765                	lui	a4,0x19
   12390:	46c1                	li	a3,16
   12392:	47ee                	lw	a5,216(sp)
   12394:	7d870913          	addi	s2,a4,2008 # 197d8 <zeroes.0>
   12398:	5f56dc63          	bge	a3,s5,12990 <_vfprintf_r+0x1530>
   1239c:	8c4a                	mv	s8,s2
   1239e:	8336                	mv	t1,a3
   123a0:	8956                	mv	s2,s5
   123a2:	4d9d                	li	s11,7
   123a4:	8afa                	mv	s5,t5
   123a6:	a021                	j	123ae <_vfprintf_r+0xf4e>
   123a8:	3941                	addiw	s2,s2,-16
   123aa:	5f235063          	bge	t1,s2,1298a <_vfprintf_r+0x152a>
   123ae:	0b41                	addi	s6,s6,16
   123b0:	2785                	addiw	a5,a5,1
   123b2:	0189b023          	sd	s8,0(s3)
   123b6:	00d9b423          	sd	a3,8(s3)
   123ba:	f1da                	sd	s6,224(sp)
   123bc:	cdbe                	sw	a5,216(sp)
   123be:	09c1                	addi	s3,s3,16
   123c0:	fefdd4e3          	bge	s11,a5,123a8 <_vfprintf_r+0xf48>
   123c4:	65a2                	ld	a1,8(sp)
   123c6:	6502                	ld	a0,0(sp)
   123c8:	0990                	addi	a2,sp,208
   123ca:	222010ef          	jal	135ec <__sprint_r>
   123ce:	e0051de3          	bnez	a0,121e8 <_vfprintf_r+0xd88>
   123d2:	4341                	li	t1,16
   123d4:	7b0e                	ld	s6,224(sp)
   123d6:	47ee                	lw	a5,216(sp)
   123d8:	89d2                	mv	s3,s4
   123da:	869a                	mv	a3,t1
   123dc:	b7f1                	j	123a8 <_vfprintf_r+0xf48>
   123de:	46ee                	lw	a3,216(sp)
   123e0:	85b6                	mv	a1,a3
   123e2:	4b41                	li	s6,16
   123e4:	66e5                	lui	a3,0x19
   123e6:	7e868693          	addi	a3,a3,2024 # 197e8 <blanks.1>
   123ea:	06eb5063          	bge	s6,a4,1244a <_vfprintf_r+0xfea>
   123ee:	87ce                	mv	a5,s3
   123f0:	e8ca                	sd	s2,80(sp)
   123f2:	83da                	mv	t2,s6
   123f4:	429d                	li	t0,7
   123f6:	893a                	mv	s2,a4
   123f8:	fcf2                	sd	t3,120(sp)
   123fa:	e17a                	sd	t5,128(sp)
   123fc:	e51a                	sd	t1,136(sp)
   123fe:	89b6                	mv	s3,a3
   12400:	a021                	j	12408 <_vfprintf_r+0xfa8>
   12402:	3941                	addiw	s2,s2,-16
   12404:	0323dc63          	bge	t2,s2,1243c <_vfprintf_r+0xfdc>
   12408:	0641                	addi	a2,a2,16
   1240a:	2585                	addiw	a1,a1,1
   1240c:	0137b023          	sd	s3,0(a5)
   12410:	0167b423          	sd	s6,8(a5)
   12414:	f1b2                	sd	a2,224(sp)
   12416:	cdae                	sw	a1,216(sp)
   12418:	07c1                	addi	a5,a5,16
   1241a:	feb2d4e3          	bge	t0,a1,12402 <_vfprintf_r+0xfa2>
   1241e:	65a2                	ld	a1,8(sp)
   12420:	6502                	ld	a0,0(sp)
   12422:	0990                	addi	a2,sp,208
   12424:	1c8010ef          	jal	135ec <__sprint_r>
   12428:	dc0510e3          	bnez	a0,121e8 <_vfprintf_r+0xd88>
   1242c:	43c1                	li	t2,16
   1242e:	3941                	addiw	s2,s2,-16
   12430:	760e                	ld	a2,224(sp)
   12432:	45ee                	lw	a1,216(sp)
   12434:	87d2                	mv	a5,s4
   12436:	429d                	li	t0,7
   12438:	fd23c8e3          	blt	t2,s2,12408 <_vfprintf_r+0xfa8>
   1243c:	874a                	mv	a4,s2
   1243e:	7e66                	ld	t3,120(sp)
   12440:	6946                	ld	s2,80(sp)
   12442:	6f0a                	ld	t5,128(sp)
   12444:	632a                	ld	t1,136(sp)
   12446:	86ce                	mv	a3,s3
   12448:	89be                	mv	s3,a5
   1244a:	00c70b33          	add	s6,a4,a2
   1244e:	2585                	addiw	a1,a1,1
   12450:	00e9b423          	sd	a4,8(s3)
   12454:	f1da                	sd	s6,224(sp)
   12456:	cdae                	sw	a1,216(sp)
   12458:	00d9b023          	sd	a3,0(s3)
   1245c:	471d                	li	a4,7
   1245e:	4ab74663          	blt	a4,a1,1290a <_vfprintf_r+0x14aa>
   12462:	09f14703          	lbu	a4,159(sp)
   12466:	09c1                	addi	s3,s3,16
   12468:	eb55                	bnez	a4,1251c <_vfprintf_r+0x10bc>
   1246a:	9e090063          	beqz	s2,1164a <_vfprintf_r+0x1ea>
   1246e:	4901                	li	s2,0
   12470:	9b6ff06f          	j	11626 <_vfprintf_r+0x1c6>
   12474:	00df7633          	and	a2,t5,a3
   12478:	e2061d63          	bnez	a2,11ab2 <_vfprintf_r+0x652>
   1247c:	01b9b023          	sd	s11,0(s3)
   12480:	00d9b423          	sd	a3,8(s3)
   12484:	f1da                	sd	s6,224(sp)
   12486:	cdd6                	sw	s5,216(sp)
   12488:	479d                	li	a5,7
   1248a:	e957d963          	bge	a5,s5,11b1c <_vfprintf_r+0x6bc>
   1248e:	65a2                	ld	a1,8(sp)
   12490:	6502                	ld	a0,0(sp)
   12492:	0990                	addi	a2,sp,208
   12494:	f87a                	sd	t5,48(sp)
   12496:	156010ef          	jal	135ec <__sprint_r>
   1249a:	d40517e3          	bnez	a0,121e8 <_vfprintf_r+0xd88>
   1249e:	7b0e                	ld	s6,224(sp)
   124a0:	4aee                	lw	s5,216(sp)
   124a2:	7f42                	ld	t5,48(sp)
   124a4:	88d2                	mv	a7,s4
   124a6:	e76ff06f          	j	11b1c <_vfprintf_r+0x6bc>
   124aa:	7722                	ld	a4,40(sp)
   124ac:	4785                	li	a5,1
   124ae:	e6e7d763          	bge	a5,a4,11b1c <_vfprintf_r+0x6bc>
   124b2:	47c5                	li	a5,17
   124b4:	00e7c463          	blt	a5,a4,124bc <_vfprintf_r+0x105c>
   124b8:	79b0006f          	j	13452 <_vfprintf_r+0x1ff2>
   124bc:	6765                	lui	a4,0x19
   124be:	7d870913          	addi	s2,a4,2008 # 197d8 <zeroes.0>
   124c2:	8c4a                	mv	s8,s2
   124c4:	47c1                	li	a5,16
   124c6:	894e                	mv	s2,s3
   124c8:	4d9d                	li	s11,7
   124ca:	89fa                	mv	s3,t5
   124cc:	a021                	j	124d4 <_vfprintf_r+0x1074>
   124ce:	3941                	addiw	s2,s2,-16
   124d0:	5b27da63          	bge	a5,s2,12a84 <_vfprintf_r+0x1624>
   124d4:	0b41                	addi	s6,s6,16
   124d6:	2a85                	addiw	s5,s5,1
   124d8:	0188b023          	sd	s8,0(a7)
   124dc:	00f8b423          	sd	a5,8(a7)
   124e0:	f1da                	sd	s6,224(sp)
   124e2:	cdd6                	sw	s5,216(sp)
   124e4:	08c1                	addi	a7,a7,16
   124e6:	ff5dd4e3          	bge	s11,s5,124ce <_vfprintf_r+0x106e>
   124ea:	65a2                	ld	a1,8(sp)
   124ec:	6502                	ld	a0,0(sp)
   124ee:	0990                	addi	a2,sp,208
   124f0:	0fc010ef          	jal	135ec <__sprint_r>
   124f4:	ce051ae3          	bnez	a0,121e8 <_vfprintf_r+0xd88>
   124f8:	7b0e                	ld	s6,224(sp)
   124fa:	4aee                	lw	s5,216(sp)
   124fc:	88d2                	mv	a7,s4
   124fe:	47c1                	li	a5,16
   12500:	b7f9                	j	124ce <_vfprintf_r+0x106e>
   12502:	8856                	mv	a6,s5
   12504:	b2e5                	j	11eec <_vfprintf_r+0xa8c>
   12506:	001f7793          	andi	a5,t5,1
   1250a:	96078563          	beqz	a5,11674 <_vfprintf_r+0x214>
   1250e:	fc0ff06f          	j	11cce <_vfprintf_r+0x86e>
   12512:	000bce03          	lbu	t3,0(s7)
   12516:	ec3e                	sd	a5,24(sp)
   12518:	864ff06f          	j	1157c <_vfprintf_r+0x11c>
   1251c:	874a                	mv	a4,s2
   1251e:	4901                	li	s2,0
   12520:	8e4ff06f          	j	11604 <_vfprintf_r+0x1a4>
   12524:	67c2                	ld	a5,16(sp)
   12526:	8dde                	mv	s11,s7
   12528:	e31c                	sd	a5,0(a4)
   1252a:	97eff06f          	j	116a8 <_vfprintf_r+0x248>
   1252e:	887a                	mv	a6,t5
   12530:	ba1d                	j	11e66 <_vfprintf_r+0xa06>
   12532:	66e2                	ld	a3,24(sp)
   12534:	08010fa3          	sb	zero,159(sp)
   12538:	87fa                	mv	a5,t5
   1253a:	0006ba83          	ld	s5,0(a3)
   1253e:	00868713          	addi	a4,a3,8
   12542:	900351e3          	bgez	t1,11e44 <_vfprintf_r+0x9e4>
   12546:	ec3a                	sd	a4,24(sp)
   12548:	4da5                	li	s11,9
   1254a:	8f3e                	mv	t5,a5
   1254c:	895df5e3          	bgeu	s11,s5,11dd6 <_vfprintf_r+0x976>
   12550:	ccccd7b7          	lui	a5,0xccccd
   12554:	ccd78793          	addi	a5,a5,-819 # ffffffffcccccccd <__BSS_END__+0xffffffffcccb0e5d>
   12558:	02079b13          	slli	s6,a5,0x20
   1255c:	14c10913          	addi	s2,sp,332
   12560:	7c26                	ld	s8,104(sp)
   12562:	886e                	mv	a6,s11
   12564:	9b3e                	add	s6,s6,a5
   12566:	864a                	mv	a2,s2
   12568:	400f7f93          	andi	t6,t5,1024
   1256c:	4681                	li	a3,0
   1256e:	0ff00d13          	li	s10,255
   12572:	a809                	j	12584 <_vfprintf_r+0x1124>
   12574:	87d6                	mv	a5,s5
   12576:	036abab3          	mulhu	s5,s5,s6
   1257a:	866e                	mv	a2,s11
   1257c:	003ada93          	srli	s5,s5,0x3
   12580:	02f87c63          	bgeu	a6,a5,125b8 <_vfprintf_r+0x1158>
   12584:	036ab733          	mulhu	a4,s5,s6
   12588:	2685                	addiw	a3,a3,1
   1258a:	fff60d93          	addi	s11,a2,-1
   1258e:	830d                	srli	a4,a4,0x3
   12590:	00271793          	slli	a5,a4,0x2
   12594:	97ba                	add	a5,a5,a4
   12596:	0786                	slli	a5,a5,0x1
   12598:	40fa87b3          	sub	a5,s5,a5
   1259c:	0307879b          	addiw	a5,a5,48
   125a0:	fef60fa3          	sb	a5,-1(a2)
   125a4:	fc0f88e3          	beqz	t6,12574 <_vfprintf_r+0x1114>
   125a8:	000c4783          	lbu	a5,0(s8)
   125ac:	fcd794e3          	bne	a5,a3,12574 <_vfprintf_r+0x1114>
   125b0:	fda782e3          	beq	a5,s10,12574 <_vfprintf_r+0x1114>
   125b4:	5b586b63          	bltu	a6,s5,12b6a <_vfprintf_r+0x170a>
   125b8:	f4e2                	sd	s8,104(sp)
   125ba:	f436                	sd	a3,40(sp)
   125bc:	41b90abb          	subw	s5,s2,s11
   125c0:	881a                	mv	a6,t1
   125c2:	01535363          	bge	t1,s5,125c8 <_vfprintf_r+0x1168>
   125c6:	8856                	mv	a6,s5
   125c8:	09f14703          	lbu	a4,159(sp)
   125cc:	00080d1b          	sext.w	s10,a6
   125d0:	829ff06f          	j	11df8 <_vfprintf_r+0x998>
   125d4:	67e2                	ld	a5,24(sp)
   125d6:	00f78693          	addi	a3,a5,15
   125da:	9ac1                	andi	a3,a3,-16
   125dc:	01068793          	addi	a5,a3,16
   125e0:	6298                	ld	a4,0(a3)
   125e2:	668c                	ld	a1,8(a3)
   125e4:	ec3e                	sd	a5,24(sp)
   125e6:	978ff06f          	j	1175e <_vfprintf_r+0x2fe>
   125ea:	67e2                	ld	a5,24(sp)
   125ec:	07a1                	addi	a5,a5,8
   125ee:	6762                	ld	a4,24(sp)
   125f0:	8f36                	mv	t5,a3
   125f2:	ec3e                	sd	a5,24(sp)
   125f4:	6318                	ld	a4,0(a4)
   125f6:	8aba                	mv	s5,a4
   125f8:	f80ff06f          	j	11d78 <_vfprintf_r+0x918>
   125fc:	7602                	ld	a2,32(sp)
   125fe:	65e5                	lui	a1,0x19
   12600:	52858713          	addi	a4,a1,1320 # 19528 <__clzdi2+0x78>
   12604:	00f67693          	andi	a3,a2,15
   12608:	9736                	add	a4,a4,a3
   1260a:	00074683          	lbu	a3,0(a4)
   1260e:	00296f13          	ori	t5,s2,2
   12612:	00465713          	srli	a4,a2,0x4
   12616:	14d105a3          	sb	a3,331(sp)
   1261a:	ec3e                	sd	a5,24(sp)
   1261c:	2f01                	sext.w	t5,t5
   1261e:	6e0703e3          	beqz	a4,13504 <_vfprintf_r+0x20a4>
   12622:	52858593          	addi	a1,a1,1320
   12626:	4609                	li	a2,2
   12628:	07800e13          	li	t3,120
   1262c:	14b10d93          	addi	s11,sp,331
   12630:	00f77793          	andi	a5,a4,15
   12634:	97ae                	add	a5,a5,a1
   12636:	0007c783          	lbu	a5,0(a5)
   1263a:	8311                	srli	a4,a4,0x4
   1263c:	1dfd                	addi	s11,s11,-1
   1263e:	00fd8023          	sb	a5,0(s11)
   12642:	f77d                	bnez	a4,12630 <_vfprintf_r+0x11d0>
   12644:	14c10893          	addi	a7,sp,332
   12648:	41b88abb          	subw	s5,a7,s11
   1264c:	881a                	mv	a6,t1
   1264e:	01535363          	bge	t1,s5,12654 <_vfprintf_r+0x11f4>
   12652:	8856                	mv	a6,s5
   12654:	00080d1b          	sext.w	s10,a6
   12658:	f002                	sd	zero,32(sp)
   1265a:	fc02                	sd	zero,56(sp)
   1265c:	f802                	sd	zero,48(sp)
   1265e:	4c01                	li	s8,0
   12660:	4501                	li	a0,0
   12662:	bfaff06f          	j	11a5c <_vfprintf_r+0x5fc>
   12666:	873e                	mv	a4,a5
   12668:	0007091b          	sext.w	s2,a4
   1266c:	c7204be3          	bgtz	s2,122e2 <_vfprintf_r+0xe82>
   12670:	b171                	j	122fc <_vfprintf_r+0xe9c>
   12672:	537d                	li	t1,-1
   12674:	b47d                	j	12122 <_vfprintf_r+0xcc2>
   12676:	65e5                	lui	a1,0x19
   12678:	8f4a                	mv	t5,s2
   1267a:	835a                	mv	t1,s6
   1267c:	54058593          	addi	a1,a1,1344 # 19540 <__clzdi2+0x90>
   12680:	66e2                	ld	a3,24(sp)
   12682:	020f7713          	andi	a4,t5,32
   12686:	00868793          	addi	a5,a3,8
   1268a:	1a070b63          	beqz	a4,12840 <_vfprintf_r+0x13e0>
   1268e:	6298                	ld	a4,0(a3)
   12690:	001f7693          	andi	a3,t5,1
   12694:	16068863          	beqz	a3,12804 <_vfprintf_r+0x13a4>
   12698:	2a070f63          	beqz	a4,12956 <_vfprintf_r+0x14f6>
   1269c:	03000693          	li	a3,48
   126a0:	0bc100a3          	sb	t3,161(sp)
   126a4:	08010fa3          	sb	zero,159(sp)
   126a8:	0ad10023          	sb	a3,160(sp)
   126ac:	1c034d63          	bltz	t1,12886 <_vfprintf_r+0x1426>
   126b0:	b7ff7f13          	andi	t5,t5,-1153
   126b4:	2f01                	sext.w	t5,t5
   126b6:	002f6f13          	ori	t5,t5,2
   126ba:	00f77693          	andi	a3,a4,15
   126be:	96ae                	add	a3,a3,a1
   126c0:	0006c683          	lbu	a3,0(a3)
   126c4:	002f7613          	andi	a2,t5,2
   126c8:	ec3e                	sd	a5,24(sp)
   126ca:	14d105a3          	sb	a3,331(sp)
   126ce:	8311                	srli	a4,a4,0x4
   126d0:	ff31                	bnez	a4,1262c <_vfprintf_r+0x11cc>
   126d2:	14b10d93          	addi	s11,sp,331
   126d6:	b7bd                	j	12644 <_vfprintf_r+0x11e4>
   126d8:	65e5                	lui	a1,0x19
   126da:	8f4a                	mv	t5,s2
   126dc:	835a                	mv	t1,s6
   126de:	52858593          	addi	a1,a1,1320 # 19528 <__clzdi2+0x78>
   126e2:	bf79                	j	12680 <_vfprintf_r+0x1220>
   126e4:	65a2                	ld	a1,8(sp)
   126e6:	6502                	ld	a0,0(sp)
   126e8:	0990                	addi	a2,sp,208
   126ea:	f87a                	sd	t5,48(sp)
   126ec:	701000ef          	jal	135ec <__sprint_r>
   126f0:	ae051ce3          	bnez	a0,121e8 <_vfprintf_r+0xd88>
   126f4:	7b0e                	ld	s6,224(sp)
   126f6:	7f42                	ld	t5,48(sp)
   126f8:	89d2                	mv	s3,s4
   126fa:	df2ff06f          	j	11cec <_vfprintf_r+0x88c>
   126fe:	02096f13          	ori	t5,s2,32
   12702:	001bce03          	lbu	t3,1(s7)
   12706:	000f091b          	sext.w	s2,t5
   1270a:	0b85                	addi	s7,s7,1
   1270c:	e71fe06f          	j	1157c <_vfprintf_r+0x11c>
   12710:	20096f13          	ori	t5,s2,512
   12714:	001bce03          	lbu	t3,1(s7)
   12718:	000f091b          	sext.w	s2,t5
   1271c:	0b85                	addi	s7,s7,1
   1271e:	e5ffe06f          	j	1157c <_vfprintf_r+0x11c>
   12722:	4681                	li	a3,0
   12724:	bef9                	j	12302 <_vfprintf_r+0xea2>
   12726:	4799                	li	a5,6
   12728:	885a                	mv	a6,s6
   1272a:	6967e263          	bltu	a5,s6,12dae <_vfprintf_r+0x194e>
   1272e:	00080d1b          	sext.w	s10,a6
   12732:	67e5                	lui	a5,0x19
   12734:	ec4a                	sd	s2,24(sp)
   12736:	8aea                	mv	s5,s10
   12738:	55878d93          	addi	s11,a5,1368 # 19558 <__clzdi2+0xa8>
   1273c:	c82ff06f          	j	11bbe <_vfprintf_r+0x75e>
   12740:	6765                	lui	a4,0x19
   12742:	48c1                	li	a7,16
   12744:	466e                	lw	a2,216(sp)
   12746:	7d870913          	addi	s2,a4,2008 # 197d8 <zeroes.0>
   1274a:	3f58d763          	bge	a7,s5,12b38 <_vfprintf_r+0x16d8>
   1274e:	87ce                	mv	a5,s3
   12750:	8e46                	mv	t3,a7
   12752:	89ca                	mv	s3,s2
   12754:	431d                	li	t1,7
   12756:	8956                	mv	s2,s5
   12758:	8afa                	mv	s5,t5
   1275a:	a021                	j	12762 <_vfprintf_r+0x1302>
   1275c:	3941                	addiw	s2,s2,-16
   1275e:	3d2e5963          	bge	t3,s2,12b30 <_vfprintf_r+0x16d0>
   12762:	0b41                	addi	s6,s6,16
   12764:	2605                	addiw	a2,a2,1
   12766:	0137b023          	sd	s3,0(a5)
   1276a:	0117b423          	sd	a7,8(a5)
   1276e:	f1da                	sd	s6,224(sp)
   12770:	cdb2                	sw	a2,216(sp)
   12772:	07c1                	addi	a5,a5,16
   12774:	fec354e3          	bge	t1,a2,1275c <_vfprintf_r+0x12fc>
   12778:	65a2                	ld	a1,8(sp)
   1277a:	6502                	ld	a0,0(sp)
   1277c:	0990                	addi	a2,sp,208
   1277e:	66f000ef          	jal	135ec <__sprint_r>
   12782:	a60513e3          	bnez	a0,121e8 <_vfprintf_r+0xd88>
   12786:	4e41                	li	t3,16
   12788:	7b0e                	ld	s6,224(sp)
   1278a:	466e                	lw	a2,216(sp)
   1278c:	87d2                	mv	a5,s4
   1278e:	431d                	li	t1,7
   12790:	88f2                	mv	a7,t3
   12792:	b7e9                	j	1275c <_vfprintf_r+0x12fc>
   12794:	07800793          	li	a5,120
   12798:	0af100a3          	sb	a5,161(sp)
   1279c:	002f6793          	ori	a5,t5,2
   127a0:	03000713          	li	a4,48
   127a4:	2781                	sext.w	a5,a5
   127a6:	0ae10023          	sb	a4,160(sp)
   127aa:	f83e                	sd	a5,48(sp)
   127ac:	06300713          	li	a4,99
   127b0:	6c674b63          	blt	a4,t1,12e86 <_vfprintf_r+0x1a26>
   127b4:	678e                	ld	a5,192(sp)
   127b6:	6aae                	ld	s5,200(sp)
   127b8:	102f6f13          	ori	t5,t5,258
   127bc:	2f01                	sext.w	t5,t5
   127be:	8c3e                	mv	s8,a5
   127c0:	2a0ac3e3          	bltz	s5,13266 <_vfprintf_r+0x1e06>
   127c4:	fbfe069b          	addiw	a3,t3,-65
   127c8:	f002                	sd	zero,32(sp)
   127ca:	0e810d93          	addi	s11,sp,232
   127ce:	e882                	sd	zero,80(sp)
   127d0:	818ff06f          	j	117e8 <_vfprintf_r+0x388>
   127d4:	8f2a                	mv	t5,a0
   127d6:	ec3e                	sd	a5,24(sp)
   127d8:	4c01                	li	s8,0
   127da:	4a81                	li	s5,0
   127dc:	fc02                	sd	zero,56(sp)
   127de:	4501                	li	a0,0
   127e0:	07800e13          	li	t3,120
   127e4:	14c10d93          	addi	s11,sp,332
   127e8:	4d09                	li	s10,2
   127ea:	41ac873b          	subw	a4,s9,s10
   127ee:	00e04963          	bgtz	a4,12800 <_vfprintf_r+0x13a0>
   127f2:	4901                	li	s2,0
   127f4:	e119                	bnez	a0,127fa <_vfprintf_r+0x139a>
   127f6:	e31fe06f          	j	11626 <_vfprintf_r+0x1c6>
   127fa:	4709                	li	a4,2
   127fc:	e09fe06f          	j	11604 <_vfprintf_r+0x1a4>
   12800:	4909                	li	s2,2
   12802:	bef9                	j	123e0 <_vfprintf_r+0xf80>
   12804:	08010fa3          	sb	zero,159(sp)
   12808:	08034263          	bltz	t1,1288c <_vfprintf_r+0x142c>
   1280c:	b7ff7f13          	andi	t5,t5,-1153
   12810:	2f01                	sext.w	t5,t5
   12812:	ea0714e3          	bnez	a4,126ba <_vfprintf_r+0x125a>
   12816:	08030863          	beqz	t1,128a6 <_vfprintf_r+0x1446>
   1281a:	0005c703          	lbu	a4,0(a1)
   1281e:	881a                	mv	a6,t1
   12820:	14e105a3          	sb	a4,331(sp)
   12824:	5c605b63          	blez	t1,12dfa <_vfprintf_r+0x199a>
   12828:	00080d1b          	sext.w	s10,a6
   1282c:	ec3e                	sd	a5,24(sp)
   1282e:	f002                	sd	zero,32(sp)
   12830:	4a85                	li	s5,1
   12832:	fc02                	sd	zero,56(sp)
   12834:	f802                	sd	zero,48(sp)
   12836:	4c01                	li	s8,0
   12838:	14b10d93          	addi	s11,sp,331
   1283c:	db3fe06f          	j	115ee <_vfprintf_r+0x18e>
   12840:	010f7713          	andi	a4,t5,16
   12844:	10070063          	beqz	a4,12944 <_vfprintf_r+0x14e4>
   12848:	6762                	ld	a4,24(sp)
   1284a:	6318                	ld	a4,0(a4)
   1284c:	b591                	j	12690 <_vfprintf_r+0x1230>
   1284e:	65a2                	ld	a1,8(sp)
   12850:	6502                	ld	a0,0(sp)
   12852:	0990                	addi	a2,sp,208
   12854:	f87a                	sd	t5,48(sp)
   12856:	597000ef          	jal	135ec <__sprint_r>
   1285a:	980517e3          	bnez	a0,121e8 <_vfprintf_r+0xd88>
   1285e:	7b0e                	ld	s6,224(sp)
   12860:	4aee                	lw	s5,216(sp)
   12862:	7f42                	ld	t5,48(sp)
   12864:	88d2                	mv	a7,s4
   12866:	a60ff06f          	j	11ac6 <_vfprintf_r+0x666>
   1286a:	65a2                	ld	a1,8(sp)
   1286c:	6502                	ld	a0,0(sp)
   1286e:	0990                	addi	a2,sp,208
   12870:	f87a                	sd	t5,48(sp)
   12872:	57b000ef          	jal	135ec <__sprint_r>
   12876:	960519e3          	bnez	a0,121e8 <_vfprintf_r+0xd88>
   1287a:	7b0e                	ld	s6,224(sp)
   1287c:	4aee                	lw	s5,216(sp)
   1287e:	7f42                	ld	t5,48(sp)
   12880:	88d2                	mv	a7,s4
   12882:	a60ff06f          	j	11ae2 <_vfprintf_r+0x682>
   12886:	002f6f13          	ori	t5,t5,2
   1288a:	2f01                	sext.w	t5,t5
   1288c:	00f77693          	andi	a3,a4,15
   12890:	96ae                	add	a3,a3,a1
   12892:	bfff7513          	andi	a0,t5,-1025
   12896:	002f7613          	andi	a2,t5,2
   1289a:	0006c683          	lbu	a3,0(a3)
   1289e:	ec3e                	sd	a5,24(sp)
   128a0:	00050f1b          	sext.w	t5,a0
   128a4:	b51d                	j	126ca <_vfprintf_r+0x126a>
   128a6:	ec3e                	sd	a5,24(sp)
   128a8:	4a81                	li	s5,0
   128aa:	4d01                	li	s10,0
   128ac:	14c10d93          	addi	s11,sp,332
   128b0:	e40ff06f          	j	11ef0 <_vfprintf_r+0xa90>
   128b4:	476e                	lw	a4,216(sp)
   128b6:	66e5                	lui	a3,0x19
   128b8:	56068693          	addi	a3,a3,1376 # 19560 <__clzdi2+0xb0>
   128bc:	0b05                	addi	s6,s6,1
   128be:	2705                	addiw	a4,a4,1
   128c0:	4585                	li	a1,1
   128c2:	00d9b023          	sd	a3,0(s3)
   128c6:	00b9b423          	sd	a1,8(s3)
   128ca:	f1da                	sd	s6,224(sp)
   128cc:	cdba                	sw	a4,216(sp)
   128ce:	469d                	li	a3,7
   128d0:	09c1                	addi	s3,s3,16
   128d2:	48e6c963          	blt	a3,a4,12d64 <_vfprintf_r+0x1904>
   128d6:	12061963          	bnez	a2,12a08 <_vfprintf_r+0x15a8>
   128da:	77a2                	ld	a5,40(sp)
   128dc:	001f7713          	andi	a4,t5,1
   128e0:	8f5d                	or	a4,a4,a5
   128e2:	2701                	sext.w	a4,a4
   128e4:	e319                	bnez	a4,128ea <_vfprintf_r+0x148a>
   128e6:	d8ffe06f          	j	11674 <_vfprintf_r+0x214>
   128ea:	46ee                	lw	a3,216(sp)
   128ec:	6786                	ld	a5,64(sp)
   128ee:	6726                	ld	a4,72(sp)
   128f0:	2685                	addiw	a3,a3,1
   128f2:	9b3e                	add	s6,s6,a5
   128f4:	00e9b023          	sd	a4,0(s3)
   128f8:	f1da                	sd	s6,224(sp)
   128fa:	00f9b423          	sd	a5,8(s3)
   128fe:	cdb6                	sw	a3,216(sp)
   12900:	471d                	li	a4,7
   12902:	56d74063          	blt	a4,a3,12e62 <_vfprintf_r+0x1a02>
   12906:	09c1                	addi	s3,s3,16
   12908:	a20d                	j	12a2a <_vfprintf_r+0x15ca>
   1290a:	65a2                	ld	a1,8(sp)
   1290c:	6502                	ld	a0,0(sp)
   1290e:	0990                	addi	a2,sp,208
   12910:	e11a                	sd	t1,128(sp)
   12912:	fcfa                	sd	t5,120(sp)
   12914:	e8f2                	sd	t3,80(sp)
   12916:	4d7000ef          	jal	135ec <__sprint_r>
   1291a:	8c0517e3          	bnez	a0,121e8 <_vfprintf_r+0xd88>
   1291e:	09f14703          	lbu	a4,159(sp)
   12922:	7b0e                	ld	s6,224(sp)
   12924:	6e46                	ld	t3,80(sp)
   12926:	7f66                	ld	t5,120(sp)
   12928:	630a                	ld	t1,128(sp)
   1292a:	14070663          	beqz	a4,12a76 <_vfprintf_r+0x1616>
   1292e:	874a                	mv	a4,s2
   12930:	45ee                	lw	a1,216(sp)
   12932:	4901                	li	s2,0
   12934:	89d2                	mv	s3,s4
   12936:	ccffe06f          	j	11604 <_vfprintf_r+0x1a4>
   1293a:	4a81                	li	s5,0
   1293c:	14c10d93          	addi	s11,sp,332
   12940:	db0ff06f          	j	11ef0 <_vfprintf_r+0xa90>
   12944:	6762                	ld	a4,24(sp)
   12946:	040f7693          	andi	a3,t5,64
   1294a:	4318                	lw	a4,0(a4)
   1294c:	18068563          	beqz	a3,12ad6 <_vfprintf_r+0x1676>
   12950:	1742                	slli	a4,a4,0x30
   12952:	9341                	srli	a4,a4,0x30
   12954:	bb35                	j	12690 <_vfprintf_r+0x1230>
   12956:	08010fa3          	sb	zero,159(sp)
   1295a:	3e034963          	bltz	t1,12d4c <_vfprintf_r+0x18ec>
   1295e:	b7ff7f13          	andi	t5,t5,-1153
   12962:	2f01                	sext.w	t5,t5
   12964:	bd4d                	j	12816 <_vfprintf_r+0x13b6>
   12966:	6502                	ld	a0,0(sp)
   12968:	a76fe0ef          	jal	10bde <__sinit>
   1296c:	b31fe06f          	j	1149c <_vfprintf_r+0x3c>
   12970:	65a2                	ld	a1,8(sp)
   12972:	6502                	ld	a0,0(sp)
   12974:	0990                	addi	a2,sp,208
   12976:	f87a                	sd	t5,48(sp)
   12978:	475000ef          	jal	135ec <__sprint_r>
   1297c:	860516e3          	bnez	a0,121e8 <_vfprintf_r+0xd88>
   12980:	7b0e                	ld	s6,224(sp)
   12982:	7f42                	ld	t5,48(sp)
   12984:	89d2                	mv	s3,s4
   12986:	b40ff06f          	j	11cc6 <_vfprintf_r+0x866>
   1298a:	8f56                	mv	t5,s5
   1298c:	8aca                	mv	s5,s2
   1298e:	8962                	mv	s2,s8
   12990:	9b56                	add	s6,s6,s5
   12992:	2785                	addiw	a5,a5,1
   12994:	f1da                	sd	s6,224(sp)
   12996:	cdbe                	sw	a5,216(sp)
   12998:	0129b023          	sd	s2,0(s3)
   1299c:	0159b423          	sd	s5,8(s3)
   129a0:	471d                	li	a4,7
   129a2:	00f74463          	blt	a4,a5,129aa <_vfprintf_r+0x154a>
   129a6:	ccdfe06f          	j	11672 <_vfprintf_r+0x212>
   129aa:	990ff06f          	j	11b3a <_vfprintf_r+0x6da>
   129ae:	650e                	ld	a0,192(sp)
   129b0:	65ae                	ld	a1,200(sp)
   129b2:	f7ff7f13          	andi	t5,t5,-129
   129b6:	2f01                	sext.w	t5,t5
   129b8:	4601                	li	a2,0
   129ba:	4681                	li	a3,0
   129bc:	f872                	sd	t3,48(sp)
   129be:	f07a                	sd	t5,32(sp)
   129c0:	269050ef          	jal	18428 <__letf2>
   129c4:	7f02                	ld	t5,32(sp)
   129c6:	7e42                	ld	t3,48(sp)
   129c8:	70054a63          	bltz	a0,130dc <_vfprintf_r+0x1c7c>
   129cc:	04700793          	li	a5,71
   129d0:	09f14703          	lbu	a4,159(sp)
   129d4:	4bc7d563          	bge	a5,t3,12e7e <_vfprintf_r+0x1a1e>
   129d8:	67e5                	lui	a5,0x19
   129da:	51078d93          	addi	s11,a5,1296 # 19510 <__clzdi2+0x60>
   129de:	14071063          	bnez	a4,12b1e <_vfprintf_r+0x16be>
   129e2:	4a8d                	li	s5,3
   129e4:	8d56                	mv	s10,s5
   129e6:	9d8ff06f          	j	11bbe <_vfprintf_r+0x75e>
   129ea:	65e5                	lui	a1,0x19
   129ec:	52858693          	addi	a3,a1,1320 # 19528 <__clzdi2+0x78>
   129f0:	00f77613          	andi	a2,a4,15
   129f4:	9636                	add	a2,a2,a3
   129f6:	00064683          	lbu	a3,0(a2)
   129fa:	8f2a                	mv	t5,a0
   129fc:	52858593          	addi	a1,a1,1320
   12a00:	4609                	li	a2,2
   12a02:	07800e13          	li	t3,120
   12a06:	b1c9                	j	126c8 <_vfprintf_r+0x1268>
   12a08:	46ee                	lw	a3,216(sp)
   12a0a:	6786                	ld	a5,64(sp)
   12a0c:	6726                	ld	a4,72(sp)
   12a0e:	2685                	addiw	a3,a3,1
   12a10:	9b3e                	add	s6,s6,a5
   12a12:	00e9b023          	sd	a4,0(s3)
   12a16:	00f9b423          	sd	a5,8(s3)
   12a1a:	f1da                	sd	s6,224(sp)
   12a1c:	cdb6                	sw	a3,216(sp)
   12a1e:	471d                	li	a4,7
   12a20:	09c1                	addi	s3,s3,16
   12a22:	44d74063          	blt	a4,a3,12e62 <_vfprintf_r+0x1a02>
   12a26:	74064b63          	bltz	a2,1317c <_vfprintf_r+0x1d1c>
   12a2a:	77a2                	ld	a5,40(sp)
   12a2c:	2685                	addiw	a3,a3,1
   12a2e:	cdb6                	sw	a3,216(sp)
   12a30:	9b3e                	add	s6,s6,a5
   12a32:	00f9b423          	sd	a5,8(s3)
   12a36:	f1da                	sd	s6,224(sp)
   12a38:	01b9b023          	sd	s11,0(s3)
   12a3c:	479d                	li	a5,7
   12a3e:	00d7c463          	blt	a5,a3,12a46 <_vfprintf_r+0x15e6>
   12a42:	c31fe06f          	j	11672 <_vfprintf_r+0x212>
   12a46:	8f4ff06f          	j	11b3a <_vfprintf_r+0x6da>
   12a4a:	856e                	mv	a0,s11
   12a4c:	f07a                	sd	t5,32(sp)
   12a4e:	ec72                	sd	t3,24(sp)
   12a50:	64a010ef          	jal	1409a <strlen>
   12a54:	00050a9b          	sext.w	s5,a0
   12a58:	6e62                	ld	t3,24(sp)
   12a5a:	7f02                	ld	t5,32(sp)
   12a5c:	8756                	mv	a4,s5
   12a5e:	3a0ac763          	bltz	s5,12e0c <_vfprintf_r+0x19ac>
   12a62:	09f14683          	lbu	a3,159(sp)
   12a66:	00070d1b          	sext.w	s10,a4
   12a6a:	94068963          	beqz	a3,11bbc <_vfprintf_r+0x75c>
   12a6e:	00170d1b          	addiw	s10,a4,1
   12a72:	94aff06f          	j	11bbc <_vfprintf_r+0x75c>
   12a76:	36090f63          	beqz	s2,12df4 <_vfprintf_r+0x1994>
   12a7a:	45ee                	lw	a1,216(sp)
   12a7c:	4901                	li	s2,0
   12a7e:	89d2                	mv	s3,s4
   12a80:	ba7fe06f          	j	11626 <_vfprintf_r+0x1c6>
   12a84:	8f4e                	mv	t5,s3
   12a86:	89ca                	mv	s3,s2
   12a88:	8962                	mv	s2,s8
   12a8a:	9b4e                	add	s6,s6,s3
   12a8c:	2a85                	addiw	s5,s5,1
   12a8e:	f1da                	sd	s6,224(sp)
   12a90:	cdd6                	sw	s5,216(sp)
   12a92:	0128b023          	sd	s2,0(a7)
   12a96:	0138b423          	sd	s3,8(a7)
   12a9a:	479d                	li	a5,7
   12a9c:	0157c463          	blt	a5,s5,12aa4 <_vfprintf_r+0x1644>
   12aa0:	87aff06f          	j	11b1a <_vfprintf_r+0x6ba>
   12aa4:	b2ed                	j	1248e <_vfprintf_r+0x102e>
   12aa6:	20097713          	andi	a4,s2,512
   12aaa:	34070d63          	beqz	a4,12e04 <_vfprintf_r+0x19a4>
   12aae:	018a9a9b          	slliw	s5,s5,0x18
   12ab2:	418ada9b          	sraiw	s5,s5,0x18
   12ab6:	ec3e                	sd	a5,24(sp)
   12ab8:	8756                	mv	a4,s5
   12aba:	abeff06f          	j	11d78 <_vfprintf_r+0x918>
   12abe:	20097793          	andi	a5,s2,512
   12ac2:	08010fa3          	sb	zero,159(sp)
   12ac6:	34078e63          	beqz	a5,12e22 <_vfprintf_r+0x19c2>
   12aca:	0ffafa93          	zext.b	s5,s5
   12ace:	cc0b5563          	bgez	s6,11f98 <_vfprintf_r+0xb38>
   12ad2:	cd0ff06f          	j	11fa2 <_vfprintf_r+0xb42>
   12ad6:	200f7693          	andi	a3,t5,512
   12ada:	34068163          	beqz	a3,12e1c <_vfprintf_r+0x19bc>
   12ade:	0ff77713          	zext.b	a4,a4
   12ae2:	b67d                	j	12690 <_vfprintf_r+0x1230>
   12ae4:	20097693          	andi	a3,s2,512
   12ae8:	32068463          	beqz	a3,12e10 <_vfprintf_r+0x19b0>
   12aec:	0ff77713          	zext.b	a4,a4
   12af0:	ec3e                	sd	a5,24(sp)
   12af2:	884a                	mv	a6,s2
   12af4:	b78ff06f          	j	11e6c <_vfprintf_r+0xa0c>
   12af8:	67ae                	ld	a5,200(sp)
   12afa:	f7ff7f13          	andi	t5,t5,-129
   12afe:	2f01                	sext.w	t5,t5
   12b00:	03f7dc13          	srli	s8,a5,0x3f
   12b04:	3207dc63          	bgez	a5,12e3c <_vfprintf_r+0x19dc>
   12b08:	02d00793          	li	a5,45
   12b0c:	08f10fa3          	sb	a5,159(sp)
   12b10:	04700793          	li	a5,71
   12b14:	01c7d4e3          	bge	a5,t3,1331c <_vfprintf_r+0x1ebc>
   12b18:	67e5                	lui	a5,0x19
   12b1a:	52078d93          	addi	s11,a5,1312 # 19520 <__clzdi2+0x70>
   12b1e:	f002                	sd	zero,32(sp)
   12b20:	4a8d                	li	s5,3
   12b22:	4301                	li	t1,0
   12b24:	fc02                	sd	zero,56(sp)
   12b26:	f802                	sd	zero,48(sp)
   12b28:	4c01                	li	s8,0
   12b2a:	4d11                	li	s10,4
   12b2c:	ac3fe06f          	j	115ee <_vfprintf_r+0x18e>
   12b30:	8f56                	mv	t5,s5
   12b32:	8aca                	mv	s5,s2
   12b34:	894e                	mv	s2,s3
   12b36:	89be                	mv	s3,a5
   12b38:	9b56                	add	s6,s6,s5
   12b3a:	2605                	addiw	a2,a2,1
   12b3c:	0129b023          	sd	s2,0(s3)
   12b40:	0159b423          	sd	s5,8(s3)
   12b44:	f1da                	sd	s6,224(sp)
   12b46:	cdb2                	sw	a2,216(sp)
   12b48:	471d                	li	a4,7
   12b4a:	09c1                	addi	s3,s3,16
   12b4c:	fac75f63          	bge	a4,a2,1230a <_vfprintf_r+0xeaa>
   12b50:	65a2                	ld	a1,8(sp)
   12b52:	6502                	ld	a0,0(sp)
   12b54:	0990                	addi	a2,sp,208
   12b56:	e8fa                	sd	t5,80(sp)
   12b58:	295000ef          	jal	135ec <__sprint_r>
   12b5c:	e8051663          	bnez	a0,121e8 <_vfprintf_r+0xd88>
   12b60:	7b0e                	ld	s6,224(sp)
   12b62:	6f46                	ld	t5,80(sp)
   12b64:	89d2                	mv	s3,s4
   12b66:	fa4ff06f          	j	1230a <_vfprintf_r+0xeaa>
   12b6a:	7646                	ld	a2,112(sp)
   12b6c:	7586                	ld	a1,96(sp)
   12b6e:	e8fe                	sd	t6,80(sp)
   12b70:	40cd88b3          	sub	a7,s11,a2
   12b74:	8546                	mv	a0,a7
   12b76:	fc1a                	sd	t1,56(sp)
   12b78:	f87a                	sd	t5,48(sp)
   12b7a:	f472                	sd	t3,40(sp)
   12b7c:	f046                	sd	a7,32(sp)
   12b7e:	27c010ef          	jal	13dfa <strncpy>
   12b82:	ccccd737          	lui	a4,0xccccd
   12b86:	ccd70713          	addi	a4,a4,-819 # ffffffffcccccccd <__BSS_END__+0xffffffffcccb0e5d>
   12b8a:	02071793          	slli	a5,a4,0x20
   12b8e:	97ba                	add	a5,a5,a4
   12b90:	02fabab3          	mulhu	s5,s5,a5
   12b94:	001c4703          	lbu	a4,1(s8)
   12b98:	7882                	ld	a7,32(sp)
   12b9a:	7e22                	ld	t3,40(sp)
   12b9c:	00e03733          	snez	a4,a4
   12ba0:	9c3a                	add	s8,s8,a4
   12ba2:	7f42                	ld	t5,48(sp)
   12ba4:	7362                	ld	t1,56(sp)
   12ba6:	6fc6                	ld	t6,80(sp)
   12ba8:	fff88d93          	addi	s11,a7,-1
   12bac:	003ada93          	srli	s5,s5,0x3
   12bb0:	02fab7b3          	mulhu	a5,s5,a5
   12bb4:	4685                	li	a3,1
   12bb6:	4825                	li	a6,9
   12bb8:	0037d713          	srli	a4,a5,0x3
   12bbc:	00271793          	slli	a5,a4,0x2
   12bc0:	97ba                	add	a5,a5,a4
   12bc2:	0786                	slli	a5,a5,0x1
   12bc4:	40fa87b3          	sub	a5,s5,a5
   12bc8:	0307879b          	addiw	a5,a5,48
   12bcc:	fef88fa3          	sb	a5,-1(a7)
   12bd0:	bae1                	j	125a8 <_vfprintf_r+0x1148>
   12bd2:	77a2                	ld	a5,40(sp)
   12bd4:	e166                	sd	s9,128(sp)
   12bd6:	8cca                	mv	s9,s2
   12bd8:	7942                	ld	s2,48(sp)
   12bda:	97ee                	add	a5,a5,s11
   12bdc:	e8be                	sd	a5,80(sp)
   12bde:	f86a                	sd	s10,48(sp)
   12be0:	87ce                	mv	a5,s3
   12be2:	fcde                	sd	s7,120(sp)
   12be4:	79e2                	ld	s3,56(sp)
   12be6:	e57a                	sd	t5,136(sp)
   12be8:	fc6e                	sd	s11,56(sp)
   12bea:	7d46                	ld	s10,112(sp)
   12bec:	6c22                	ld	s8,8(sp)
   12bee:	7da6                	ld	s11,104(sp)
   12bf0:	469d                	li	a3,7
   12bf2:	4ac1                	li	s5,16
   12bf4:	875a                	mv	a4,s6
   12bf6:	07205c63          	blez	s2,12c6e <_vfprintf_r+0x180e>
   12bfa:	11305c63          	blez	s3,12d12 <_vfprintf_r+0x18b2>
   12bfe:	39fd                	addiw	s3,s3,-1
   12c00:	466e                	lw	a2,216(sp)
   12c02:	7586                	ld	a1,96(sp)
   12c04:	976a                	add	a4,a4,s10
   12c06:	2605                	addiw	a2,a2,1
   12c08:	e38c                	sd	a1,0(a5)
   12c0a:	01a7b423          	sd	s10,8(a5)
   12c0e:	f1ba                	sd	a4,224(sp)
   12c10:	cdb2                	sw	a2,216(sp)
   12c12:	07c1                	addi	a5,a5,16
   12c14:	10c6c263          	blt	a3,a2,12d18 <_vfprintf_r+0x18b8>
   12c18:	65c6                	ld	a1,80(sp)
   12c1a:	000dc603          	lbu	a2,0(s11)
   12c1e:	419588b3          	sub	a7,a1,s9
   12c22:	0008859b          	sext.w	a1,a7
   12c26:	0006081b          	sext.w	a6,a2
   12c2a:	00b65363          	bge	a2,a1,12c30 <_vfprintf_r+0x17d0>
   12c2e:	88c2                	mv	a7,a6
   12c30:	00088b1b          	sext.w	s6,a7
   12c34:	03605263          	blez	s6,12c58 <_vfprintf_r+0x17f8>
   12c38:	466e                	lw	a2,216(sp)
   12c3a:	975a                	add	a4,a4,s6
   12c3c:	f1ba                	sd	a4,224(sp)
   12c3e:	2605                	addiw	a2,a2,1
   12c40:	0197b023          	sd	s9,0(a5)
   12c44:	0167b423          	sd	s6,8(a5)
   12c48:	cdb2                	sw	a2,216(sp)
   12c4a:	0ec6c263          	blt	a3,a2,12d2e <_vfprintf_r+0x18ce>
   12c4e:	000dc603          	lbu	a2,0(s11)
   12c52:	07c1                	addi	a5,a5,16
   12c54:	0006081b          	sext.w	a6,a2
   12c58:	85da                	mv	a1,s6
   12c5a:	000b5363          	bgez	s6,12c60 <_vfprintf_r+0x1800>
   12c5e:	4581                	li	a1,0
   12c60:	40b80b3b          	subw	s6,a6,a1
   12c64:	03604863          	bgtz	s6,12c94 <_vfprintf_r+0x1834>
   12c68:	9cb2                	add	s9,s9,a2
   12c6a:	f92048e3          	bgtz	s2,12bfa <_vfprintf_r+0x179a>
   12c6e:	f93048e3          	bgtz	s3,12bfe <_vfprintf_r+0x179e>
   12c72:	f4ee                	sd	s11,104(sp)
   12c74:	89be                	mv	s3,a5
   12c76:	7de2                	ld	s11,56(sp)
   12c78:	77a2                	ld	a5,40(sp)
   12c7a:	8966                	mv	s2,s9
   12c7c:	8b3a                	mv	s6,a4
   12c7e:	00fd8733          	add	a4,s11,a5
   12c82:	7be6                	ld	s7,120(sp)
   12c84:	6c8a                	ld	s9,128(sp)
   12c86:	6f2a                	ld	t5,136(sp)
   12c88:	7d42                	ld	s10,48(sp)
   12c8a:	e9277663          	bgeu	a4,s2,12316 <_vfprintf_r+0xeb6>
   12c8e:	893a                	mv	s2,a4
   12c90:	e86ff06f          	j	12316 <_vfprintf_r+0xeb6>
   12c94:	68e5                	lui	a7,0x19
   12c96:	466e                	lw	a2,216(sp)
   12c98:	7d888b93          	addi	s7,a7,2008 # 197d8 <zeroes.0>
   12c9c:	056adc63          	bge	s5,s6,12cf4 <_vfprintf_r+0x1894>
   12ca0:	65e5                	lui	a1,0x19
   12ca2:	7d858b93          	addi	s7,a1,2008 # 197d8 <zeroes.0>
   12ca6:	85de                	mv	a1,s7
   12ca8:	8bda                	mv	s7,s6
   12caa:	8b4e                	mv	s6,s3
   12cac:	89ca                	mv	s3,s2
   12cae:	892e                	mv	s2,a1
   12cb0:	a021                	j	12cb8 <_vfprintf_r+0x1858>
   12cb2:	3bc1                	addiw	s7,s7,-16
   12cb4:	037adb63          	bge	s5,s7,12cea <_vfprintf_r+0x188a>
   12cb8:	0741                	addi	a4,a4,16
   12cba:	2605                	addiw	a2,a2,1
   12cbc:	0127b023          	sd	s2,0(a5)
   12cc0:	0157b423          	sd	s5,8(a5)
   12cc4:	f1ba                	sd	a4,224(sp)
   12cc6:	cdb2                	sw	a2,216(sp)
   12cc8:	07c1                	addi	a5,a5,16
   12cca:	fec6d4e3          	bge	a3,a2,12cb2 <_vfprintf_r+0x1852>
   12cce:	6502                	ld	a0,0(sp)
   12cd0:	0990                	addi	a2,sp,208
   12cd2:	85e2                	mv	a1,s8
   12cd4:	119000ef          	jal	135ec <__sprint_r>
   12cd8:	22051563          	bnez	a0,12f02 <_vfprintf_r+0x1aa2>
   12cdc:	3bc1                	addiw	s7,s7,-16
   12cde:	770e                	ld	a4,224(sp)
   12ce0:	466e                	lw	a2,216(sp)
   12ce2:	87d2                	mv	a5,s4
   12ce4:	469d                	li	a3,7
   12ce6:	fd7ac9e3          	blt	s5,s7,12cb8 <_vfprintf_r+0x1858>
   12cea:	85ca                	mv	a1,s2
   12cec:	894e                	mv	s2,s3
   12cee:	89da                	mv	s3,s6
   12cf0:	8b5e                	mv	s6,s7
   12cf2:	8bae                	mv	s7,a1
   12cf4:	975a                	add	a4,a4,s6
   12cf6:	2605                	addiw	a2,a2,1
   12cf8:	f1ba                	sd	a4,224(sp)
   12cfa:	cdb2                	sw	a2,216(sp)
   12cfc:	0177b023          	sd	s7,0(a5)
   12d00:	0167b423          	sd	s6,8(a5)
   12d04:	2ac6cd63          	blt	a3,a2,12fbe <_vfprintf_r+0x1b5e>
   12d08:	000dc603          	lbu	a2,0(s11)
   12d0c:	07c1                	addi	a5,a5,16
   12d0e:	9cb2                	add	s9,s9,a2
   12d10:	bfa9                	j	12c6a <_vfprintf_r+0x180a>
   12d12:	1dfd                	addi	s11,s11,-1
   12d14:	397d                	addiw	s2,s2,-1
   12d16:	b5ed                	j	12c00 <_vfprintf_r+0x17a0>
   12d18:	6502                	ld	a0,0(sp)
   12d1a:	0990                	addi	a2,sp,208
   12d1c:	85e2                	mv	a1,s8
   12d1e:	0cf000ef          	jal	135ec <__sprint_r>
   12d22:	1e051063          	bnez	a0,12f02 <_vfprintf_r+0x1aa2>
   12d26:	770e                	ld	a4,224(sp)
   12d28:	87d2                	mv	a5,s4
   12d2a:	469d                	li	a3,7
   12d2c:	b5f5                	j	12c18 <_vfprintf_r+0x17b8>
   12d2e:	6502                	ld	a0,0(sp)
   12d30:	0990                	addi	a2,sp,208
   12d32:	85e2                	mv	a1,s8
   12d34:	0b9000ef          	jal	135ec <__sprint_r>
   12d38:	1c051563          	bnez	a0,12f02 <_vfprintf_r+0x1aa2>
   12d3c:	000dc603          	lbu	a2,0(s11)
   12d40:	770e                	ld	a4,224(sp)
   12d42:	87d2                	mv	a5,s4
   12d44:	0006081b          	sext.w	a6,a2
   12d48:	469d                	li	a3,7
   12d4a:	b739                	j	12c58 <_vfprintf_r+0x17f8>
   12d4c:	0005c703          	lbu	a4,0(a1)
   12d50:	bfff7f13          	andi	t5,t5,-1025
   12d54:	2f01                	sext.w	t5,t5
   12d56:	14e105a3          	sb	a4,331(sp)
   12d5a:	ec3e                	sd	a5,24(sp)
   12d5c:	4601                	li	a2,0
   12d5e:	14b10d93          	addi	s11,sp,331
   12d62:	b0cd                	j	12644 <_vfprintf_r+0x11e4>
   12d64:	65a2                	ld	a1,8(sp)
   12d66:	6502                	ld	a0,0(sp)
   12d68:	0990                	addi	a2,sp,208
   12d6a:	f87a                	sd	t5,48(sp)
   12d6c:	081000ef          	jal	135ec <__sprint_r>
   12d70:	c6051c63          	bnez	a0,121e8 <_vfprintf_r+0xd88>
   12d74:	562a                	lw	a2,168(sp)
   12d76:	7b0e                	ld	s6,224(sp)
   12d78:	7f42                	ld	t5,48(sp)
   12d7a:	89d2                	mv	s3,s4
   12d7c:	bea9                	j	128d6 <_vfprintf_r+0x1476>
   12d7e:	09f14703          	lbu	a4,159(sp)
   12d82:	4d01                	li	s10,0
   12d84:	14c10d93          	addi	s11,sp,332
   12d88:	870ff06f          	j	11df8 <_vfprintf_r+0x998>
   12d8c:	65a2                	ld	a1,8(sp)
   12d8e:	6502                	ld	a0,0(sp)
   12d90:	0990                	addi	a2,sp,208
   12d92:	e8fa                	sd	t5,80(sp)
   12d94:	059000ef          	jal	135ec <__sprint_r>
   12d98:	c4051863          	bnez	a0,121e8 <_vfprintf_r+0xd88>
   12d9c:	7b0e                	ld	s6,224(sp)
   12d9e:	6f46                	ld	t5,80(sp)
   12da0:	89d2                	mv	s3,s4
   12da2:	d5aff06f          	j	122fc <_vfprintf_r+0xe9c>
   12da6:	00168d1b          	addiw	s10,a3,1
   12daa:	e13fe06f          	j	11bbc <_vfprintf_r+0x75c>
   12dae:	883e                	mv	a6,a5
   12db0:	babd                	j	1272e <_vfprintf_r+0x12ce>
   12db2:	03000713          	li	a4,48
   12db6:	8f2a                	mv	t5,a0
   12db8:	ec3e                	sd	a5,24(sp)
   12dba:	14e105a3          	sb	a4,331(sp)
   12dbe:	8d5a                	mv	s10,s6
   12dc0:	f802                	sd	zero,48(sp)
   12dc2:	fc02                	sd	zero,56(sp)
   12dc4:	4a85                	li	s5,1
   12dc6:	4c01                	li	s8,0
   12dc8:	14b10d93          	addi	s11,sp,331
   12dcc:	07800e13          	li	t3,120
   12dd0:	4501                	li	a0,0
   12dd2:	c8ffe06f          	j	11a60 <_vfprintf_r+0x600>
   12dd6:	873e                	mv	a4,a5
   12dd8:	97ee                	add	a5,a5,s11
   12dda:	412787b3          	sub	a5,a5,s2
   12dde:	4157073b          	subw	a4,a4,s5
   12de2:	0007869b          	sext.w	a3,a5
   12de6:	00d75363          	bge	a4,a3,12dec <_vfprintf_r+0x198c>
   12dea:	87ba                	mv	a5,a4
   12dec:	00078a9b          	sext.w	s5,a5
   12df0:	d8eff06f          	j	1237e <_vfprintf_r+0xf1e>
   12df4:	89d2                	mv	s3,s4
   12df6:	855fe06f          	j	1164a <_vfprintf_r+0x1ea>
   12dfa:	4805                	li	a6,1
   12dfc:	b435                	j	12828 <_vfprintf_r+0x13c8>
   12dfe:	4681                	li	a3,0
   12e00:	db3fe06f          	j	11bb2 <_vfprintf_r+0x752>
   12e04:	ec3e                	sd	a5,24(sp)
   12e06:	8756                	mv	a4,s5
   12e08:	f71fe06f          	j	11d78 <_vfprintf_r+0x918>
   12e0c:	4701                	li	a4,0
   12e0e:	b991                	j	12a62 <_vfprintf_r+0x1602>
   12e10:	1702                	slli	a4,a4,0x20
   12e12:	9301                	srli	a4,a4,0x20
   12e14:	ec3e                	sd	a5,24(sp)
   12e16:	884a                	mv	a6,s2
   12e18:	854ff06f          	j	11e6c <_vfprintf_r+0xa0c>
   12e1c:	1702                	slli	a4,a4,0x20
   12e1e:	9301                	srli	a4,a4,0x20
   12e20:	b885                	j	12690 <_vfprintf_r+0x1230>
   12e22:	1a82                	slli	s5,s5,0x20
   12e24:	020ada93          	srli	s5,s5,0x20
   12e28:	960b5863          	bgez	s6,11f98 <_vfprintf_r+0xb38>
   12e2c:	976ff06f          	j	11fa2 <_vfprintf_r+0xb42>
   12e30:	67c2                	ld	a5,16(sp)
   12e32:	8dde                	mv	s11,s7
   12e34:	00f71023          	sh	a5,0(a4)
   12e38:	871fe06f          	j	116a8 <_vfprintf_r+0x248>
   12e3c:	04700793          	li	a5,71
   12e40:	09f14703          	lbu	a4,159(sp)
   12e44:	57c7d463          	bge	a5,t3,133ac <_vfprintf_r+0x1f4c>
   12e48:	67e5                	lui	a5,0x19
   12e4a:	52078d93          	addi	s11,a5,1312 # 19520 <__clzdi2+0x70>
   12e4e:	6c071a63          	bnez	a4,13522 <_vfprintf_r+0x20c2>
   12e52:	4a8d                	li	s5,3
   12e54:	8d56                	mv	s10,s5
   12e56:	4301                	li	t1,0
   12e58:	fc02                	sd	zero,56(sp)
   12e5a:	f802                	sd	zero,48(sp)
   12e5c:	f002                	sd	zero,32(sp)
   12e5e:	f90fe06f          	j	115ee <_vfprintf_r+0x18e>
   12e62:	65a2                	ld	a1,8(sp)
   12e64:	6502                	ld	a0,0(sp)
   12e66:	0990                	addi	a2,sp,208
   12e68:	f87a                	sd	t5,48(sp)
   12e6a:	782000ef          	jal	135ec <__sprint_r>
   12e6e:	b6051d63          	bnez	a0,121e8 <_vfprintf_r+0xd88>
   12e72:	562a                	lw	a2,168(sp)
   12e74:	7b0e                	ld	s6,224(sp)
   12e76:	46ee                	lw	a3,216(sp)
   12e78:	7f42                	ld	t5,48(sp)
   12e7a:	89d2                	mv	s3,s4
   12e7c:	b66d                	j	12a26 <_vfprintf_r+0x15c6>
   12e7e:	67e5                	lui	a5,0x19
   12e80:	50878d93          	addi	s11,a5,1288 # 19508 <__clzdi2+0x58>
   12e84:	bea9                	j	129de <_vfprintf_r+0x157e>
   12e86:	6502                	ld	a0,0(sp)
   12e88:	0013059b          	addiw	a1,t1,1
   12e8c:	e8fa                	sd	t5,80(sp)
   12e8e:	fc72                	sd	t3,56(sp)
   12e90:	f41a                	sd	t1,40(sp)
   12e92:	cf0fd0ef          	jal	10382 <_malloc_r>
   12e96:	f02a                	sd	a0,32(sp)
   12e98:	7322                	ld	t1,40(sp)
   12e9a:	7e62                	ld	t3,56(sp)
   12e9c:	6f46                	ld	t5,80(sp)
   12e9e:	64050a63          	beqz	a0,134f2 <_vfprintf_r+0x2092>
   12ea2:	678e                	ld	a5,192(sp)
   12ea4:	6aae                	ld	s5,200(sp)
   12ea6:	102f6f13          	ori	t5,t5,258
   12eaa:	2f01                	sext.w	t5,t5
   12eac:	8c3e                	mv	s8,a5
   12eae:	5c0ac163          	bltz	s5,13470 <_vfprintf_r+0x2010>
   12eb2:	7d82                	ld	s11,32(sp)
   12eb4:	fbfe069b          	addiw	a3,t3,-65
   12eb8:	e882                	sd	zero,80(sp)
   12eba:	92ffe06f          	j	117e8 <_vfprintf_r+0x388>
   12ebe:	02d00693          	li	a3,45
   12ec2:	4705                	li	a4,1
   12ec4:	0ad108a3          	sb	a3,177(sp)
   12ec8:	4187073b          	subw	a4,a4,s8
   12ecc:	46a5                	li	a3,9
   12ece:	00e6d463          	bge	a3,a4,12ed6 <_vfprintf_r+0x1a76>
   12ed2:	ac5fe06f          	j	11996 <_vfprintf_r+0x536>
   12ed6:	0b210693          	addi	a3,sp,178
   12eda:	0b9c                	addi	a5,sp,464
   12edc:	40f68633          	sub	a2,a3,a5
   12ee0:	0307071b          	addiw	a4,a4,48
   12ee4:	1216079b          	addiw	a5,a2,289
   12ee8:	00e68023          	sb	a4,0(a3)
   12eec:	ecbe                	sd	a5,88(sp)
   12eee:	b21fe06f          	j	11a0e <_vfprintf_r+0x5ae>
   12ef2:	09f14503          	lbu	a0,159(sp)
   12ef6:	c119                	beqz	a0,12efc <_vfprintf_r+0x1a9c>
   12ef8:	b61fe06f          	j	11a58 <_vfprintf_r+0x5f8>
   12efc:	4301                	li	t1,0
   12efe:	b5ffe06f          	j	11a5c <_vfprintf_r+0x5fc>
   12f02:	8962                	mv	s2,s8
   12f04:	ae6ff06f          	j	121ea <_vfprintf_r+0xd8a>
   12f08:	f41a                	sd	t1,40(sp)
   12f0a:	468d                	li	a3,3
   12f0c:	7722                	ld	a4,40(sp)
   12f0e:	6502                	ld	a0,0(sp)
   12f10:	0b810893          	addi	a7,sp,184
   12f14:	0ac10813          	addi	a6,sp,172
   12f18:	113c                	addi	a5,sp,168
   12f1a:	85e2                	mv	a1,s8
   12f1c:	8656                	mv	a2,s5
   12f1e:	e11a                	sd	t1,128(sp)
   12f20:	fcfa                	sd	t5,120(sp)
   12f22:	fc72                	sd	t3,56(sp)
   12f24:	334010ef          	jal	14258 <_ldtoa_r>
   12f28:	7e62                	ld	t3,56(sp)
   12f2a:	7f66                	ld	t5,120(sp)
   12f2c:	630a                	ld	t1,128(sp)
   12f2e:	8daa                	mv	s11,a0
   12f30:	77a2                	ld	a5,40(sp)
   12f32:	fdfe7913          	andi	s2,t3,-33
   12f36:	04600693          	li	a3,70
   12f3a:	00fd8b33          	add	s6,s11,a5
   12f3e:	10d90663          	beq	s2,a3,1304a <_vfprintf_r+0x1bea>
   12f42:	8562                	mv	a0,s8
   12f44:	85d6                	mv	a1,s5
   12f46:	4601                	li	a2,0
   12f48:	4681                	li	a3,0
   12f4a:	e11a                	sd	t1,128(sp)
   12f4c:	fcfa                	sd	t5,120(sp)
   12f4e:	fc72                	sd	t3,56(sp)
   12f50:	392050ef          	jal	182e2 <__eqtf2>
   12f54:	7e62                	ld	t3,56(sp)
   12f56:	7f66                	ld	t5,120(sp)
   12f58:	630a                	ld	t1,128(sp)
   12f5a:	48050d63          	beqz	a0,133f4 <_vfprintf_r+0x1f94>
   12f5e:	77ea                	ld	a5,184(sp)
   12f60:	5d67f963          	bgeu	a5,s6,13532 <_vfprintf_r+0x20d2>
   12f64:	03000613          	li	a2,48
   12f68:	00178713          	addi	a4,a5,1
   12f6c:	fd3a                	sd	a4,184(sp)
   12f6e:	00c78023          	sb	a2,0(a5)
   12f72:	77ea                	ld	a5,184(sp)
   12f74:	ff67eae3          	bltu	a5,s6,12f68 <_vfprintf_r+0x1b08>
   12f78:	41b787bb          	subw	a5,a5,s11
   12f7c:	04700693          	li	a3,71
   12f80:	f43e                	sd	a5,40(sp)
   12f82:	5c2a                	lw	s8,168(sp)
   12f84:	06d90263          	beq	s2,a3,12fe8 <_vfprintf_r+0x1b88>
   12f88:	04600693          	li	a3,70
   12f8c:	0ed90f63          	beq	s2,a3,1308a <_vfprintf_r+0x1c2a>
   12f90:	fffc071b          	addiw	a4,s8,-1
   12f94:	d53a                	sw	a4,168(sp)
   12f96:	0bc10823          	sb	t3,176(sp)
   12f9a:	16074363          	bltz	a4,13100 <_vfprintf_r+0x1ca0>
   12f9e:	02b00693          	li	a3,43
   12fa2:	0ad108a3          	sb	a3,177(sp)
   12fa6:	46a5                	li	a3,9
   12fa8:	00e6d463          	bge	a3,a4,12fb0 <_vfprintf_r+0x1b50>
   12fac:	9ebfe06f          	j	11996 <_vfprintf_r+0x536>
   12fb0:	03000693          	li	a3,48
   12fb4:	0ad10923          	sb	a3,178(sp)
   12fb8:	0b310693          	addi	a3,sp,179
   12fbc:	bf39                	j	12eda <_vfprintf_r+0x1a7a>
   12fbe:	6502                	ld	a0,0(sp)
   12fc0:	0990                	addi	a2,sp,208
   12fc2:	85e2                	mv	a1,s8
   12fc4:	628000ef          	jal	135ec <__sprint_r>
   12fc8:	fd0d                	bnez	a0,12f02 <_vfprintf_r+0x1aa2>
   12fca:	000dc603          	lbu	a2,0(s11)
   12fce:	770e                	ld	a4,224(sp)
   12fd0:	87d2                	mv	a5,s4
   12fd2:	469d                	li	a3,7
   12fd4:	9cb2                	add	s9,s9,a2
   12fd6:	b951                	j	12c6a <_vfprintf_r+0x180a>
   12fd8:	5c2a                	lw	s8,168(sp)
   12fda:	41bb07bb          	subw	a5,s6,s11
   12fde:	04700693          	li	a3,71
   12fe2:	f43e                	sd	a5,40(sp)
   12fe4:	0ad91363          	bne	s2,a3,1308a <_vfprintf_r+0x1c2a>
   12fe8:	5775                	li	a4,-3
   12fea:	10ec4563          	blt	s8,a4,130f4 <_vfprintf_r+0x1c94>
   12fee:	03835263          	bge	t1,s8,13012 <_vfprintf_r+0x1bb2>
   12ff2:	3e79                	addiw	t3,t3,-2
   12ff4:	fffc071b          	addiw	a4,s8,-1
   12ff8:	0bc10823          	sb	t3,176(sp)
   12ffc:	d53a                	sw	a4,168(sp)
   12ffe:	fa0750e3          	bgez	a4,12f9e <_vfprintf_r+0x1b3e>
   13002:	4705                	li	a4,1
   13004:	02d00693          	li	a3,45
   13008:	4187073b          	subw	a4,a4,s8
   1300c:	0ad108a3          	sb	a3,177(sp)
   13010:	b745                	j	12fb0 <_vfprintf_r+0x1b50>
   13012:	77a2                	ld	a5,40(sp)
   13014:	14fc4063          	blt	s8,a5,13154 <_vfprintf_r+0x1cf4>
   13018:	77c2                	ld	a5,48(sp)
   1301a:	8ae2                	mv	s5,s8
   1301c:	0017f713          	andi	a4,a5,1
   13020:	c701                	beqz	a4,13028 <_vfprintf_r+0x1bc8>
   13022:	6786                	ld	a5,64(sp)
   13024:	01878abb          	addw	s5,a5,s8
   13028:	77c2                	ld	a5,48(sp)
   1302a:	4007f713          	andi	a4,a5,1024
   1302e:	c319                	beqz	a4,13034 <_vfprintf_r+0x1bd4>
   13030:	2f804b63          	bgtz	s8,13326 <_vfprintf_r+0x1ec6>
   13034:	8856                	mv	a6,s5
   13036:	120ace63          	bltz	s5,13172 <_vfprintf_r+0x1d12>
   1303a:	00080d1b          	sext.w	s10,a6
   1303e:	06700e13          	li	t3,103
   13042:	fc02                	sd	zero,56(sp)
   13044:	f802                	sd	zero,48(sp)
   13046:	9fffe06f          	j	11a44 <_vfprintf_r+0x5e4>
   1304a:	000dc603          	lbu	a2,0(s11)
   1304e:	03000693          	li	a3,48
   13052:	32d60d63          	beq	a2,a3,1338c <_vfprintf_r+0x1f2c>
   13056:	56aa                	lw	a3,168(sp)
   13058:	9b36                	add	s6,s6,a3
   1305a:	8562                	mv	a0,s8
   1305c:	85d6                	mv	a1,s5
   1305e:	4601                	li	a2,0
   13060:	4681                	li	a3,0
   13062:	fc9a                	sd	t1,120(sp)
   13064:	fc7a                	sd	t5,56(sp)
   13066:	f472                	sd	t3,40(sp)
   13068:	27a050ef          	jal	182e2 <__eqtf2>
   1306c:	7e22                	ld	t3,40(sp)
   1306e:	7f62                	ld	t5,56(sp)
   13070:	7366                	ld	t1,120(sp)
   13072:	d13d                	beqz	a0,12fd8 <_vfprintf_r+0x1b78>
   13074:	77ea                	ld	a5,184(sp)
   13076:	ef67e7e3          	bltu	a5,s6,12f64 <_vfprintf_r+0x1b04>
   1307a:	41b787bb          	subw	a5,a5,s11
   1307e:	04700693          	li	a3,71
   13082:	f43e                	sd	a5,40(sp)
   13084:	5c2a                	lw	s8,168(sp)
   13086:	f6d901e3          	beq	s2,a3,12fe8 <_vfprintf_r+0x1b88>
   1308a:	77c2                	ld	a5,48(sp)
   1308c:	0017f713          	andi	a4,a5,1
   13090:	00e36733          	or	a4,t1,a4
   13094:	43805463          	blez	s8,134bc <_vfprintf_r+0x205c>
   13098:	36071463          	bnez	a4,13400 <_vfprintf_r+0x1fa0>
   1309c:	8ae2                	mv	s5,s8
   1309e:	06600e13          	li	t3,102
   130a2:	77c2                	ld	a5,48(sp)
   130a4:	4007f713          	andi	a4,a5,1024
   130a8:	28071163          	bnez	a4,1332a <_vfprintf_r+0x1eca>
   130ac:	8856                	mv	a6,s5
   130ae:	000ac563          	bltz	s5,130b8 <_vfprintf_r+0x1c58>
   130b2:	00080d1b          	sext.w	s10,a6
   130b6:	b771                	j	13042 <_vfprintf_r+0x1be2>
   130b8:	4801                	li	a6,0
   130ba:	00080d1b          	sext.w	s10,a6
   130be:	b751                	j	13042 <_vfprintf_r+0x1be2>
   130c0:	65a2                	ld	a1,8(sp)
   130c2:	6502                	ld	a0,0(sp)
   130c4:	0990                	addi	a2,sp,208
   130c6:	f87a                	sd	t5,48(sp)
   130c8:	524000ef          	jal	135ec <__sprint_r>
   130cc:	90051e63          	bnez	a0,121e8 <_vfprintf_r+0xd88>
   130d0:	5aaa                	lw	s5,168(sp)
   130d2:	7b0e                	ld	s6,224(sp)
   130d4:	7f42                	ld	t5,48(sp)
   130d6:	89d2                	mv	s3,s4
   130d8:	a6cff06f          	j	12344 <_vfprintf_r+0xee4>
   130dc:	02d00793          	li	a5,45
   130e0:	08f10fa3          	sb	a5,159(sp)
   130e4:	04700793          	li	a5,71
   130e8:	21c7d063          	bge	a5,t3,132e8 <_vfprintf_r+0x1e88>
   130ec:	67e5                	lui	a5,0x19
   130ee:	51078d93          	addi	s11,a5,1296 # 19510 <__clzdi2+0x60>
   130f2:	b435                	j	12b1e <_vfprintf_r+0x16be>
   130f4:	3e79                	addiw	t3,t3,-2
   130f6:	fffc071b          	addiw	a4,s8,-1
   130fa:	0bc10823          	sb	t3,176(sp)
   130fe:	d53a                	sw	a4,168(sp)
   13100:	02d00693          	li	a3,45
   13104:	4705                	li	a4,1
   13106:	0ad108a3          	sb	a3,177(sp)
   1310a:	4187073b          	subw	a4,a4,s8
   1310e:	46a5                	li	a3,9
   13110:	00e6d463          	bge	a3,a4,13118 <_vfprintf_r+0x1cb8>
   13114:	883fe06f          	j	11996 <_vfprintf_r+0x536>
   13118:	bd61                	j	12fb0 <_vfprintf_r+0x1b50>
   1311a:	ec4a                	sd	s2,24(sp)
   1311c:	12070963          	beqz	a4,1324e <_vfprintf_r+0x1dee>
   13120:	00130d1b          	addiw	s10,t1,1
   13124:	8a9a                	mv	s5,t1
   13126:	fc02                	sd	zero,56(sp)
   13128:	4301                	li	t1,0
   1312a:	f802                	sd	zero,48(sp)
   1312c:	4c01                	li	s8,0
   1312e:	cc0fe06f          	j	115ee <_vfprintf_r+0x18e>
   13132:	65a2                	ld	a1,8(sp)
   13134:	6502                	ld	a0,0(sp)
   13136:	0990                	addi	a2,sp,208
   13138:	f87a                	sd	t5,48(sp)
   1313a:	4b2000ef          	jal	135ec <__sprint_r>
   1313e:	8a051563          	bnez	a0,121e8 <_vfprintf_r+0xd88>
   13142:	572a                	lw	a4,168(sp)
   13144:	77a2                	ld	a5,40(sp)
   13146:	7b0e                	ld	s6,224(sp)
   13148:	7f42                	ld	t5,48(sp)
   1314a:	89d2                	mv	s3,s4
   1314c:	40e7873b          	subw	a4,a5,a4
   13150:	a2eff06f          	j	1237e <_vfprintf_r+0xf1e>
   13154:	6786                	ld	a5,64(sp)
   13156:	7722                	ld	a4,40(sp)
   13158:	06700e13          	li	t3,103
   1315c:	00e78abb          	addw	s5,a5,a4
   13160:	f58041e3          	bgtz	s8,130a2 <_vfprintf_r+0x1c42>
   13164:	418a88bb          	subw	a7,s5,s8
   13168:	00188a9b          	addiw	s5,a7,1
   1316c:	8856                	mv	a6,s5
   1316e:	ec0ad6e3          	bgez	s5,1303a <_vfprintf_r+0x1bda>
   13172:	4801                	li	a6,0
   13174:	b5d9                	j	1303a <_vfprintf_r+0x1bda>
   13176:	86ca                	mv	a3,s2
   13178:	c76ff06f          	j	125ee <_vfprintf_r+0x118e>
   1317c:	5741                	li	a4,-16
   1317e:	40c00abb          	negw	s5,a2
   13182:	36e65463          	bge	a2,a4,134ea <_vfprintf_r+0x208a>
   13186:	6765                	lui	a4,0x19
   13188:	7d870913          	addi	s2,a4,2008 # 197d8 <zeroes.0>
   1318c:	48c1                	li	a7,16
   1318e:	431d                	li	t1,7
   13190:	8c7a                	mv	s8,t5
   13192:	a021                	j	1319a <_vfprintf_r+0x1d3a>
   13194:	3ac1                	addiw	s5,s5,-16
   13196:	1158de63          	bge	a7,s5,132b2 <_vfprintf_r+0x1e52>
   1319a:	0b41                	addi	s6,s6,16
   1319c:	2685                	addiw	a3,a3,1
   1319e:	0129b023          	sd	s2,0(s3)
   131a2:	0119b423          	sd	a7,8(s3)
   131a6:	f1da                	sd	s6,224(sp)
   131a8:	cdb6                	sw	a3,216(sp)
   131aa:	09c1                	addi	s3,s3,16
   131ac:	fed354e3          	bge	t1,a3,13194 <_vfprintf_r+0x1d34>
   131b0:	65a2                	ld	a1,8(sp)
   131b2:	6502                	ld	a0,0(sp)
   131b4:	0990                	addi	a2,sp,208
   131b6:	436000ef          	jal	135ec <__sprint_r>
   131ba:	c119                	beqz	a0,131c0 <_vfprintf_r+0x1d60>
   131bc:	82cff06f          	j	121e8 <_vfprintf_r+0xd88>
   131c0:	7b0e                	ld	s6,224(sp)
   131c2:	46ee                	lw	a3,216(sp)
   131c4:	89d2                	mv	s3,s4
   131c6:	431d                	li	t1,7
   131c8:	48c1                	li	a7,16
   131ca:	b7e9                	j	13194 <_vfprintf_r+0x1d34>
   131cc:	0013079b          	addiw	a5,t1,1
   131d0:	f43e                	sd	a5,40(sp)
   131d2:	4689                	li	a3,2
   131d4:	bb25                	j	12f0c <_vfprintf_r+0x1aac>
   131d6:	00031363          	bnez	t1,131dc <_vfprintf_r+0x1d7c>
   131da:	8336                	mv	t1,a3
   131dc:	1e0ad463          	bgez	s5,133c4 <_vfprintf_r+0x1f64>
   131e0:	177e                	slli	a4,a4,0x3f
   131e2:	02d00793          	li	a5,45
   131e6:	f87a                	sd	t5,48(sp)
   131e8:	00eacab3          	xor	s5,s5,a4
   131ec:	f002                	sd	zero,32(sp)
   131ee:	8f5a                	mv	t5,s6
   131f0:	e8be                	sd	a5,80(sp)
   131f2:	6502                	ld	a0,0(sp)
   131f4:	871a                	mv	a4,t1
   131f6:	0b810893          	addi	a7,sp,184
   131fa:	0ac10813          	addi	a6,sp,172
   131fe:	113c                	addi	a5,sp,168
   13200:	4689                	li	a3,2
   13202:	85e2                	mv	a1,s8
   13204:	8656                	mv	a2,s5
   13206:	fcfa                	sd	t5,120(sp)
   13208:	fc72                	sd	t3,56(sp)
   1320a:	f41a                	sd	t1,40(sp)
   1320c:	04c010ef          	jal	14258 <_ldtoa_r>
   13210:	7e62                	ld	t3,56(sp)
   13212:	04700713          	li	a4,71
   13216:	7322                	ld	t1,40(sp)
   13218:	7f66                	ld	t5,120(sp)
   1321a:	8daa                	mv	s11,a0
   1321c:	30ee1163          	bne	t3,a4,1351e <_vfprintf_r+0x20be>
   13220:	77c2                	ld	a5,48(sp)
   13222:	0017f713          	andi	a4,a5,1
   13226:	ef19                	bnez	a4,13244 <_vfprintf_r+0x1de4>
   13228:	77ea                	ld	a5,184(sp)
   1322a:	5c2a                	lw	s8,168(sp)
   1322c:	5775                	li	a4,-3
   1322e:	41b787bb          	subw	a5,a5,s11
   13232:	f43e                	sd	a5,40(sp)
   13234:	ecec40e3          	blt	s8,a4,130f4 <_vfprintf_r+0x1c94>
   13238:	db834de3          	blt	t1,s8,12ff2 <_vfprintf_r+0x1b92>
   1323c:	f0fc4ce3          	blt	s8,a5,13154 <_vfprintf_r+0x1cf4>
   13240:	8ae2                	mv	s5,s8
   13242:	b3dd                	j	13028 <_vfprintf_r+0x1bc8>
   13244:	006d8b33          	add	s6,s11,t1
   13248:	04700913          	li	s2,71
   1324c:	b539                	j	1305a <_vfprintf_r+0x1bfa>
   1324e:	8a9a                	mv	s5,t1
   13250:	8d1a                	mv	s10,t1
   13252:	fc02                	sd	zero,56(sp)
   13254:	4301                	li	t1,0
   13256:	f802                	sd	zero,48(sp)
   13258:	4c01                	li	s8,0
   1325a:	b94fe06f          	j	115ee <_vfprintf_r+0x18e>
   1325e:	c31c                	sw	a5,0(a4)
   13260:	8dde                	mv	s11,s7
   13262:	c46fe06f          	j	116a8 <_vfprintf_r+0x248>
   13266:	f002                	sd	zero,32(sp)
   13268:	0e810d93          	addi	s11,sp,232
   1326c:	577d                	li	a4,-1
   1326e:	177e                	slli	a4,a4,0x3f
   13270:	02d00793          	li	a5,45
   13274:	00eacab3          	xor	s5,s5,a4
   13278:	e8be                	sd	a5,80(sp)
   1327a:	fbfe069b          	addiw	a3,t3,-65
   1327e:	02600713          	li	a4,38
   13282:	00e68463          	beq	a3,a4,1328a <_vfprintf_r+0x1e2a>
   13286:	d62fe06f          	j	117e8 <_vfprintf_r+0x388>
   1328a:	6502                	ld	a0,0(sp)
   1328c:	871a                	mv	a4,t1
   1328e:	0b810893          	addi	a7,sp,184
   13292:	0ac10813          	addi	a6,sp,172
   13296:	113c                	addi	a5,sp,168
   13298:	4689                	li	a3,2
   1329a:	85e2                	mv	a1,s8
   1329c:	8656                	mv	a2,s5
   1329e:	fcfa                	sd	t5,120(sp)
   132a0:	fc72                	sd	t3,56(sp)
   132a2:	f41a                	sd	t1,40(sp)
   132a4:	7b5000ef          	jal	14258 <_ldtoa_r>
   132a8:	7322                	ld	t1,40(sp)
   132aa:	7e62                	ld	t3,56(sp)
   132ac:	7f66                	ld	t5,120(sp)
   132ae:	8daa                	mv	s11,a0
   132b0:	bf85                	j	13220 <_vfprintf_r+0x1dc0>
   132b2:	8f62                	mv	t5,s8
   132b4:	9b56                	add	s6,s6,s5
   132b6:	2685                	addiw	a3,a3,1
   132b8:	f1da                	sd	s6,224(sp)
   132ba:	cdb6                	sw	a3,216(sp)
   132bc:	0129b023          	sd	s2,0(s3)
   132c0:	0159b423          	sd	s5,8(s3)
   132c4:	471d                	li	a4,7
   132c6:	e4d75063          	bge	a4,a3,12906 <_vfprintf_r+0x14a6>
   132ca:	65a2                	ld	a1,8(sp)
   132cc:	6502                	ld	a0,0(sp)
   132ce:	0990                	addi	a2,sp,208
   132d0:	f87a                	sd	t5,48(sp)
   132d2:	31a000ef          	jal	135ec <__sprint_r>
   132d6:	c119                	beqz	a0,132dc <_vfprintf_r+0x1e7c>
   132d8:	f11fe06f          	j	121e8 <_vfprintf_r+0xd88>
   132dc:	7b0e                	ld	s6,224(sp)
   132de:	46ee                	lw	a3,216(sp)
   132e0:	7f42                	ld	t5,48(sp)
   132e2:	89d2                	mv	s3,s4
   132e4:	f46ff06f          	j	12a2a <_vfprintf_r+0x15ca>
   132e8:	67e5                	lui	a5,0x19
   132ea:	50878d93          	addi	s11,a5,1288 # 19508 <__clzdi2+0x58>
   132ee:	831ff06f          	j	12b1e <_vfprintf_r+0x16be>
   132f2:	77c2                	ld	a5,48(sp)
   132f4:	8efd                	and	a3,a3,a5
   132f6:	e299                	bnez	a3,132fc <_vfprintf_r+0x1e9c>
   132f8:	f2efe06f          	j	11a26 <_vfprintf_r+0x5c6>
   132fc:	f24fe06f          	j	11a20 <_vfprintf_r+0x5c0>
   13300:	678e                	ld	a5,192(sp)
   13302:	6aae                	ld	s5,200(sp)
   13304:	100f6713          	ori	a4,t5,256
   13308:	2701                	sext.w	a4,a4
   1330a:	f87a                	sd	t5,48(sp)
   1330c:	f002                	sd	zero,32(sp)
   1330e:	8c3e                	mv	s8,a5
   13310:	8f3a                	mv	t5,a4
   13312:	4319                	li	t1,6
   13314:	f40acce3          	bltz	s5,1326c <_vfprintf_r+0x1e0c>
   13318:	e882                	sd	zero,80(sp)
   1331a:	b785                	j	1327a <_vfprintf_r+0x1e1a>
   1331c:	67e5                	lui	a5,0x19
   1331e:	51878d93          	addi	s11,a5,1304 # 19518 <__clzdi2+0x68>
   13322:	ffcff06f          	j	12b1e <_vfprintf_r+0x16be>
   13326:	06700e13          	li	t3,103
   1332a:	77a6                	ld	a5,104(sp)
   1332c:	0ff00693          	li	a3,255
   13330:	0007c703          	lbu	a4,0(a5)
   13334:	1ad70863          	beq	a4,a3,134e4 <_vfprintf_r+0x2084>
   13338:	4501                	li	a0,0
   1333a:	4581                	li	a1,0
   1333c:	0007061b          	sext.w	a2,a4
   13340:	01875b63          	bge	a4,s8,13356 <_vfprintf_r+0x1ef6>
   13344:	0017c703          	lbu	a4,1(a5)
   13348:	40cc0c3b          	subw	s8,s8,a2
   1334c:	cf05                	beqz	a4,13384 <_vfprintf_r+0x1f24>
   1334e:	2585                	addiw	a1,a1,1
   13350:	0785                	addi	a5,a5,1
   13352:	fed715e3          	bne	a4,a3,1333c <_vfprintf_r+0x1edc>
   13356:	f4be                	sd	a5,104(sp)
   13358:	f82e                	sd	a1,48(sp)
   1335a:	fc2a                	sd	a0,56(sp)
   1335c:	77e2                	ld	a5,56(sp)
   1335e:	7742                	ld	a4,48(sp)
   13360:	9f3d                	addw	a4,a4,a5
   13362:	77c6                	ld	a5,112(sp)
   13364:	02f7073b          	mulw	a4,a4,a5
   13368:	01570abb          	addw	s5,a4,s5
   1336c:	8856                	mv	a6,s5
   1336e:	000ac663          	bltz	s5,1337a <_vfprintf_r+0x1f1a>
   13372:	00080d1b          	sext.w	s10,a6
   13376:	ecefe06f          	j	11a44 <_vfprintf_r+0x5e4>
   1337a:	4801                	li	a6,0
   1337c:	00080d1b          	sext.w	s10,a6
   13380:	ec4fe06f          	j	11a44 <_vfprintf_r+0x5e4>
   13384:	0007c703          	lbu	a4,0(a5)
   13388:	2505                	addiw	a0,a0,1
   1338a:	b7e1                	j	13352 <_vfprintf_r+0x1ef2>
   1338c:	4601                	li	a2,0
   1338e:	4681                	li	a3,0
   13390:	8562                	mv	a0,s8
   13392:	85d6                	mv	a1,s5
   13394:	e11a                	sd	t1,128(sp)
   13396:	fcfa                	sd	t5,120(sp)
   13398:	fc72                	sd	t3,56(sp)
   1339a:	749040ef          	jal	182e2 <__eqtf2>
   1339e:	7e62                	ld	t3,56(sp)
   133a0:	7f66                	ld	t5,120(sp)
   133a2:	630a                	ld	t1,128(sp)
   133a4:	e169                	bnez	a0,13466 <_vfprintf_r+0x2006>
   133a6:	5c2a                	lw	s8,168(sp)
   133a8:	9b62                	add	s6,s6,s8
   133aa:	b905                	j	12fda <_vfprintf_r+0x1b7a>
   133ac:	67e5                	lui	a5,0x19
   133ae:	51878d93          	addi	s11,a5,1304 # 19518 <__clzdi2+0x68>
   133b2:	bc71                	j	12e4e <_vfprintf_r+0x19ee>
   133b4:	6922                	ld	s2,8(sp)
   133b6:	e3ffe06f          	j	121f4 <_vfprintf_r+0xd94>
   133ba:	00031363          	bnez	t1,133c0 <_vfprintf_r+0x1f60>
   133be:	8336                	mv	t1,a3
   133c0:	0c0ac163          	bltz	s5,13482 <_vfprintf_r+0x2022>
   133c4:	6502                	ld	a0,0(sp)
   133c6:	871a                	mv	a4,t1
   133c8:	0b810893          	addi	a7,sp,184
   133cc:	0ac10813          	addi	a6,sp,172
   133d0:	113c                	addi	a5,sp,168
   133d2:	4689                	li	a3,2
   133d4:	85e2                	mv	a1,s8
   133d6:	8656                	mv	a2,s5
   133d8:	f07a                	sd	t5,32(sp)
   133da:	fc72                	sd	t3,56(sp)
   133dc:	f41a                	sd	t1,40(sp)
   133de:	67b000ef          	jal	14258 <_ldtoa_r>
   133e2:	7f02                	ld	t5,32(sp)
   133e4:	7322                	ld	t1,40(sp)
   133e6:	7e62                	ld	t3,56(sp)
   133e8:	f87a                	sd	t5,48(sp)
   133ea:	8daa                	mv	s11,a0
   133ec:	8f5a                	mv	t5,s6
   133ee:	e882                	sd	zero,80(sp)
   133f0:	f002                	sd	zero,32(sp)
   133f2:	b53d                	j	13220 <_vfprintf_r+0x1dc0>
   133f4:	04700693          	li	a3,71
   133f8:	5c2a                	lw	s8,168(sp)
   133fa:	b8d91be3          	bne	s2,a3,12f90 <_vfprintf_r+0x1b30>
   133fe:	b6ed                	j	12fe8 <_vfprintf_r+0x1b88>
   13400:	6786                	ld	a5,64(sp)
   13402:	018308bb          	addw	a7,t1,s8
   13406:	06600e13          	li	t3,102
   1340a:	00f88abb          	addw	s5,a7,a5
   1340e:	b951                	j	130a2 <_vfprintf_r+0x1c42>
   13410:	894e                	mv	s2,s3
   13412:	01ad86bb          	addw	a3,s11,s10
   13416:	412686bb          	subw	a3,a3,s2
   1341a:	7ba2                	ld	s7,40(sp)
   1341c:	79e2                	ld	s3,56(sp)
   1341e:	6e66                	ld	t3,88(sp)
   13420:	0006d463          	bgez	a3,13428 <_vfprintf_r+0x1fc8>
   13424:	d28fe06f          	j	1194c <_vfprintf_r+0x4ec>
   13428:	00168613          	addi	a2,a3,1
   1342c:	964a                	add	a2,a2,s2
   1342e:	874a                	mv	a4,s2
   13430:	03000593          	li	a1,48
   13434:	0705                	addi	a4,a4,1
   13436:	feb70fa3          	sb	a1,-1(a4)
   1343a:	fec71de3          	bne	a4,a2,13434 <_vfprintf_r+0x1fd4>
   1343e:	00190793          	addi	a5,s2,1
   13442:	00d78933          	add	s2,a5,a3
   13446:	d06fe06f          	j	1194c <_vfprintf_r+0x4ec>
   1344a:	07000613          	li	a2,112
   1344e:	d2afe06f          	j	11978 <_vfprintf_r+0x518>
   13452:	6765                	lui	a4,0x19
   13454:	7d870913          	addi	s2,a4,2008 # 197d8 <zeroes.0>
   13458:	e32ff06f          	j	12a8a <_vfprintf_r+0x162a>
   1345c:	6765                	lui	a4,0x19
   1345e:	52870a93          	addi	s5,a4,1320 # 19528 <__clzdi2+0x78>
   13462:	bfcfe06f          	j	1185e <_vfprintf_r+0x3fe>
   13466:	77a2                	ld	a5,40(sp)
   13468:	4685                	li	a3,1
   1346a:	9e9d                	subw	a3,a3,a5
   1346c:	d536                	sw	a3,168(sp)
   1346e:	b6ed                	j	13058 <_vfprintf_r+0x1bf8>
   13470:	7d82                	ld	s11,32(sp)
   13472:	bbed                	j	1326c <_vfprintf_r+0x1e0c>
   13474:	f002                	sd	zero,32(sp)
   13476:	8f5a                	mv	t5,s6
   13478:	bbd5                	j	1326c <_vfprintf_r+0x1e0c>
   1347a:	00aac683          	lbu	a3,10(s5)
   1347e:	ccafe06f          	j	11948 <_vfprintf_r+0x4e8>
   13482:	177e                	slli	a4,a4,0x3f
   13484:	02d00793          	li	a5,45
   13488:	f87a                	sd	t5,48(sp)
   1348a:	00eacab3          	xor	s5,s5,a4
   1348e:	f002                	sd	zero,32(sp)
   13490:	8f5a                	mv	t5,s6
   13492:	e8be                	sd	a5,80(sp)
   13494:	bbdd                	j	1328a <_vfprintf_r+0x1e2a>
   13496:	6762                	ld	a4,24(sp)
   13498:	431c                	lw	a5,0(a4)
   1349a:	0721                	addi	a4,a4,8
   1349c:	833e                	mv	t1,a5
   1349e:	0007d363          	bgez	a5,134a4 <_vfprintf_r+0x2044>
   134a2:	537d                	li	t1,-1
   134a4:	001bce03          	lbu	t3,1(s7)
   134a8:	00030b1b          	sext.w	s6,t1
   134ac:	ec3a                	sd	a4,24(sp)
   134ae:	8bb2                	mv	s7,a2
   134b0:	8ccfe06f          	j	1157c <_vfprintf_r+0x11c>
   134b4:	4789                	li	a5,2
   134b6:	ecbe                	sd	a5,88(sp)
   134b8:	d56fe06f          	j	11a0e <_vfprintf_r+0x5ae>
   134bc:	e711                	bnez	a4,134c8 <_vfprintf_r+0x2068>
   134be:	4d05                	li	s10,1
   134c0:	8aea                	mv	s5,s10
   134c2:	06600e13          	li	t3,102
   134c6:	beb5                	j	13042 <_vfprintf_r+0x1be2>
   134c8:	6786                	ld	a5,64(sp)
   134ca:	0017889b          	addiw	a7,a5,1
   134ce:	00688abb          	addw	s5,a7,t1
   134d2:	8856                	mv	a6,s5
   134d4:	000ad363          	bgez	s5,134da <_vfprintf_r+0x207a>
   134d8:	4801                	li	a6,0
   134da:	00080d1b          	sext.w	s10,a6
   134de:	06600e13          	li	t3,102
   134e2:	b685                	j	13042 <_vfprintf_r+0x1be2>
   134e4:	fc02                	sd	zero,56(sp)
   134e6:	f802                	sd	zero,48(sp)
   134e8:	bd95                	j	1335c <_vfprintf_r+0x1efc>
   134ea:	6765                	lui	a4,0x19
   134ec:	7d870913          	addi	s2,a4,2008 # 197d8 <zeroes.0>
   134f0:	b3d1                	j	132b4 <_vfprintf_r+0x1e54>
   134f2:	6922                	ld	s2,8(sp)
   134f4:	01095783          	lhu	a5,16(s2)
   134f8:	0407e793          	ori	a5,a5,64
   134fc:	00f91823          	sh	a5,16(s2)
   13500:	cf5fe06f          	j	121f4 <_vfprintf_r+0xd94>
   13504:	4d05                	li	s10,1
   13506:	f802                	sd	zero,48(sp)
   13508:	fc02                	sd	zero,56(sp)
   1350a:	8aea                	mv	s5,s10
   1350c:	f002                	sd	zero,32(sp)
   1350e:	4c01                	li	s8,0
   13510:	14b10d93          	addi	s11,sp,331
   13514:	07800e13          	li	t3,120
   13518:	4501                	li	a0,0
   1351a:	d46fe06f          	j	11a60 <_vfprintf_r+0x600>
   1351e:	f41a                	sd	t1,40(sp)
   13520:	bc01                	j	12f30 <_vfprintf_r+0x1ad0>
   13522:	4301                	li	t1,0
   13524:	fc02                	sd	zero,56(sp)
   13526:	f802                	sd	zero,48(sp)
   13528:	f002                	sd	zero,32(sp)
   1352a:	4a8d                	li	s5,3
   1352c:	4d11                	li	s10,4
   1352e:	8c0fe06f          	j	115ee <_vfprintf_r+0x18e>
   13532:	41b787bb          	subw	a5,a5,s11
   13536:	04700693          	li	a3,71
   1353a:	f43e                	sd	a5,40(sp)
   1353c:	5c2a                	lw	s8,168(sp)
   1353e:	a4d919e3          	bne	s2,a3,12f90 <_vfprintf_r+0x1b30>
   13542:	b45d                	j	12fe8 <_vfprintf_r+0x1b88>

0000000000013544 <vfprintf>:
   13544:	872a                	mv	a4,a0
   13546:	2301b503          	ld	a0,560(gp) # 1b8a0 <_impure_ptr>
   1354a:	87ae                	mv	a5,a1
   1354c:	86b2                	mv	a3,a2
   1354e:	85ba                	mv	a1,a4
   13550:	863e                	mv	a2,a5
   13552:	f0ffd06f          	j	11460 <_vfprintf_r>

0000000000013556 <__sbprintf>:
   13556:	0105d783          	lhu	a5,16(a1)
   1355a:	0ac5ae83          	lw	t4,172(a1)
   1355e:	0125de03          	lhu	t3,18(a1)
   13562:	0305b303          	ld	t1,48(a1)
   13566:	0405b883          	ld	a7,64(a1)
   1356a:	b3010113          	addi	sp,sp,-1232
   1356e:	0b010813          	addi	a6,sp,176
   13572:	40000713          	li	a4,1024
   13576:	4c813023          	sd	s0,1216(sp)
   1357a:	9bf5                	andi	a5,a5,-3
   1357c:	842e                	mv	s0,a1
   1357e:	858a                	mv	a1,sp
   13580:	4a913c23          	sd	s1,1208(sp)
   13584:	4b213823          	sd	s2,1200(sp)
   13588:	4c113423          	sd	ra,1224(sp)
   1358c:	d402                	sw	zero,40(sp)
   1358e:	00f11823          	sh	a5,16(sp)
   13592:	d776                	sw	t4,172(sp)
   13594:	01c11923          	sh	t3,18(sp)
   13598:	f81a                	sd	t1,48(sp)
   1359a:	e0c6                	sd	a7,64(sp)
   1359c:	892a                	mv	s2,a0
   1359e:	e042                	sd	a6,0(sp)
   135a0:	ec42                	sd	a6,24(sp)
   135a2:	c63a                	sw	a4,12(sp)
   135a4:	d03a                	sw	a4,32(sp)
   135a6:	ebbfd0ef          	jal	11460 <_vfprintf_r>
   135aa:	84aa                	mv	s1,a0
   135ac:	02055963          	bgez	a0,135de <__sbprintf+0x88>
   135b0:	01015783          	lhu	a5,16(sp)
   135b4:	0407f793          	andi	a5,a5,64
   135b8:	c799                	beqz	a5,135c6 <__sbprintf+0x70>
   135ba:	01045783          	lhu	a5,16(s0)
   135be:	0407e793          	ori	a5,a5,64
   135c2:	00f41823          	sh	a5,16(s0)
   135c6:	4c813083          	ld	ra,1224(sp)
   135ca:	4c013403          	ld	s0,1216(sp)
   135ce:	4b013903          	ld	s2,1200(sp)
   135d2:	8526                	mv	a0,s1
   135d4:	4b813483          	ld	s1,1208(sp)
   135d8:	4d010113          	addi	sp,sp,1232
   135dc:	8082                	ret
   135de:	858a                	mv	a1,sp
   135e0:	854a                	mv	a0,s2
   135e2:	280000ef          	jal	13862 <_fflush_r>
   135e6:	d569                	beqz	a0,135b0 <__sbprintf+0x5a>
   135e8:	54fd                	li	s1,-1
   135ea:	b7d9                	j	135b0 <__sbprintf+0x5a>

00000000000135ec <__sprint_r>:
   135ec:	6a1c                	ld	a5,16(a2)
   135ee:	1141                	addi	sp,sp,-16
   135f0:	e022                	sd	s0,0(sp)
   135f2:	e406                	sd	ra,8(sp)
   135f4:	8432                	mv	s0,a2
   135f6:	eb81                	bnez	a5,13606 <__sprint_r+0x1a>
   135f8:	60a2                	ld	ra,8(sp)
   135fa:	00042423          	sw	zero,8(s0)
   135fe:	6402                	ld	s0,0(sp)
   13600:	4501                	li	a0,0
   13602:	0141                	addi	sp,sp,16
   13604:	8082                	ret
   13606:	2de000ef          	jal	138e4 <__sfvwrite_r>
   1360a:	60a2                	ld	ra,8(sp)
   1360c:	00043823          	sd	zero,16(s0)
   13610:	00042423          	sw	zero,8(s0)
   13614:	6402                	ld	s0,0(sp)
   13616:	0141                	addi	sp,sp,16
   13618:	8082                	ret

000000000001361a <_fclose_r>:
   1361a:	1101                	addi	sp,sp,-32
   1361c:	ec06                	sd	ra,24(sp)
   1361e:	e04a                	sd	s2,0(sp)
   13620:	cd89                	beqz	a1,1363a <_fclose_r+0x20>
   13622:	e822                	sd	s0,16(sp)
   13624:	e426                	sd	s1,8(sp)
   13626:	842e                	mv	s0,a1
   13628:	84aa                	mv	s1,a0
   1362a:	c119                	beqz	a0,13630 <_fclose_r+0x16>
   1362c:	653c                	ld	a5,72(a0)
   1362e:	c7d9                	beqz	a5,136bc <_fclose_r+0xa2>
   13630:	01041783          	lh	a5,16(s0)
   13634:	eb89                	bnez	a5,13646 <_fclose_r+0x2c>
   13636:	6442                	ld	s0,16(sp)
   13638:	64a2                	ld	s1,8(sp)
   1363a:	60e2                	ld	ra,24(sp)
   1363c:	4901                	li	s2,0
   1363e:	854a                	mv	a0,s2
   13640:	6902                	ld	s2,0(sp)
   13642:	6105                	addi	sp,sp,32
   13644:	8082                	ret
   13646:	85a2                	mv	a1,s0
   13648:	8526                	mv	a0,s1
   1364a:	080000ef          	jal	136ca <__sflush_r>
   1364e:	683c                	ld	a5,80(s0)
   13650:	892a                	mv	s2,a0
   13652:	c791                	beqz	a5,1365e <_fclose_r+0x44>
   13654:	780c                	ld	a1,48(s0)
   13656:	8526                	mv	a0,s1
   13658:	9782                	jalr	a5
   1365a:	04054663          	bltz	a0,136a6 <_fclose_r+0x8c>
   1365e:	01045783          	lhu	a5,16(s0)
   13662:	0807f793          	andi	a5,a5,128
   13666:	e7b1                	bnez	a5,136b2 <_fclose_r+0x98>
   13668:	6c2c                	ld	a1,88(s0)
   1366a:	c991                	beqz	a1,1367e <_fclose_r+0x64>
   1366c:	07440793          	addi	a5,s0,116
   13670:	00f58563          	beq	a1,a5,1367a <_fclose_r+0x60>
   13674:	8526                	mv	a0,s1
   13676:	ba7fd0ef          	jal	1121c <_free_r>
   1367a:	04043c23          	sd	zero,88(s0)
   1367e:	7c2c                	ld	a1,120(s0)
   13680:	c591                	beqz	a1,1368c <_fclose_r+0x72>
   13682:	8526                	mv	a0,s1
   13684:	b99fd0ef          	jal	1121c <_free_r>
   13688:	06043c23          	sd	zero,120(s0)
   1368c:	d68fd0ef          	jal	10bf4 <__sfp_lock_acquire>
   13690:	00041823          	sh	zero,16(s0)
   13694:	d62fd0ef          	jal	10bf6 <__sfp_lock_release>
   13698:	60e2                	ld	ra,24(sp)
   1369a:	6442                	ld	s0,16(sp)
   1369c:	64a2                	ld	s1,8(sp)
   1369e:	854a                	mv	a0,s2
   136a0:	6902                	ld	s2,0(sp)
   136a2:	6105                	addi	sp,sp,32
   136a4:	8082                	ret
   136a6:	01045783          	lhu	a5,16(s0)
   136aa:	597d                	li	s2,-1
   136ac:	0807f793          	andi	a5,a5,128
   136b0:	dfc5                	beqz	a5,13668 <_fclose_r+0x4e>
   136b2:	6c0c                	ld	a1,24(s0)
   136b4:	8526                	mv	a0,s1
   136b6:	b67fd0ef          	jal	1121c <_free_r>
   136ba:	b77d                	j	13668 <_fclose_r+0x4e>
   136bc:	d22fd0ef          	jal	10bde <__sinit>
   136c0:	bf85                	j	13630 <_fclose_r+0x16>

00000000000136c2 <fclose>:
   136c2:	85aa                	mv	a1,a0
   136c4:	2301b503          	ld	a0,560(gp) # 1b8a0 <_impure_ptr>
   136c8:	bf89                	j	1361a <_fclose_r>

00000000000136ca <__sflush_r>:
   136ca:	01059703          	lh	a4,16(a1)
   136ce:	7179                	addi	sp,sp,-48
   136d0:	f022                	sd	s0,32(sp)
   136d2:	e44e                	sd	s3,8(sp)
   136d4:	f406                	sd	ra,40(sp)
   136d6:	00877793          	andi	a5,a4,8
   136da:	842e                	mv	s0,a1
   136dc:	89aa                	mv	s3,a0
   136de:	e7e1                	bnez	a5,137a6 <__sflush_r+0xdc>
   136e0:	6785                	lui	a5,0x1
   136e2:	80078793          	addi	a5,a5,-2048 # 800 <exit-0xf920>
   136e6:	4594                	lw	a3,8(a1)
   136e8:	8fd9                	or	a5,a5,a4
   136ea:	00f59823          	sh	a5,16(a1)
   136ee:	10d05963          	blez	a3,13800 <__sflush_r+0x136>
   136f2:	04843803          	ld	a6,72(s0)
   136f6:	0a080263          	beqz	a6,1379a <__sflush_r+0xd0>
   136fa:	ec26                	sd	s1,24(sp)
   136fc:	03371693          	slli	a3,a4,0x33
   13700:	0009a483          	lw	s1,0(s3)
   13704:	0009a023          	sw	zero,0(s3)
   13708:	1006c363          	bltz	a3,1380e <__sflush_r+0x144>
   1370c:	780c                	ld	a1,48(s0)
   1370e:	4601                	li	a2,0
   13710:	4685                	li	a3,1
   13712:	854e                	mv	a0,s3
   13714:	9802                	jalr	a6
   13716:	57fd                	li	a5,-1
   13718:	862a                	mv	a2,a0
   1371a:	12f50163          	beq	a0,a5,1383c <__sflush_r+0x172>
   1371e:	01041783          	lh	a5,16(s0)
   13722:	04843803          	ld	a6,72(s0)
   13726:	8b91                	andi	a5,a5,4
   13728:	c799                	beqz	a5,13736 <__sflush_r+0x6c>
   1372a:	4418                	lw	a4,8(s0)
   1372c:	6c3c                	ld	a5,88(s0)
   1372e:	8e19                	sub	a2,a2,a4
   13730:	c399                	beqz	a5,13736 <__sflush_r+0x6c>
   13732:	583c                	lw	a5,112(s0)
   13734:	8e1d                	sub	a2,a2,a5
   13736:	780c                	ld	a1,48(s0)
   13738:	4681                	li	a3,0
   1373a:	854e                	mv	a0,s3
   1373c:	9802                	jalr	a6
   1373e:	577d                	li	a4,-1
   13740:	01041783          	lh	a5,16(s0)
   13744:	0ce51763          	bne	a0,a4,13812 <__sflush_r+0x148>
   13748:	0009a683          	lw	a3,0(s3)
   1374c:	4775                	li	a4,29
   1374e:	10d76363          	bltu	a4,a3,13854 <__sflush_r+0x18a>
   13752:	20400737          	lui	a4,0x20400
   13756:	0705                	addi	a4,a4,1 # 20400001 <__BSS_END__+0x203e4191>
   13758:	00d75733          	srl	a4,a4,a3
   1375c:	8b05                	andi	a4,a4,1
   1375e:	cb7d                	beqz	a4,13854 <__sflush_r+0x18a>
   13760:	6c10                	ld	a2,24(s0)
   13762:	777d                	lui	a4,0xfffff
   13764:	7ff70713          	addi	a4,a4,2047 # fffffffffffff7ff <__BSS_END__+0xfffffffffffe398f>
   13768:	8f7d                	and	a4,a4,a5
   1376a:	00e41823          	sh	a4,16(s0)
   1376e:	00042423          	sw	zero,8(s0)
   13772:	e010                	sd	a2,0(s0)
   13774:	03379713          	slli	a4,a5,0x33
   13778:	00075363          	bgez	a4,1377e <__sflush_r+0xb4>
   1377c:	cacd                	beqz	a3,1382e <__sflush_r+0x164>
   1377e:	6c2c                	ld	a1,88(s0)
   13780:	0099a023          	sw	s1,0(s3)
   13784:	c9d5                	beqz	a1,13838 <__sflush_r+0x16e>
   13786:	07440793          	addi	a5,s0,116
   1378a:	00f58563          	beq	a1,a5,13794 <__sflush_r+0xca>
   1378e:	854e                	mv	a0,s3
   13790:	a8dfd0ef          	jal	1121c <_free_r>
   13794:	64e2                	ld	s1,24(sp)
   13796:	04043c23          	sd	zero,88(s0)
   1379a:	70a2                	ld	ra,40(sp)
   1379c:	7402                	ld	s0,32(sp)
   1379e:	69a2                	ld	s3,8(sp)
   137a0:	4501                	li	a0,0
   137a2:	6145                	addi	sp,sp,48
   137a4:	8082                	ret
   137a6:	e84a                	sd	s2,16(sp)
   137a8:	0185b903          	ld	s2,24(a1)
   137ac:	04090f63          	beqz	s2,1380a <__sflush_r+0x140>
   137b0:	ec26                	sd	s1,24(sp)
   137b2:	6184                	ld	s1,0(a1)
   137b4:	8b0d                	andi	a4,a4,3
   137b6:	0125b023          	sd	s2,0(a1)
   137ba:	412484bb          	subw	s1,s1,s2
   137be:	4781                	li	a5,0
   137c0:	e311                	bnez	a4,137c4 <__sflush_r+0xfa>
   137c2:	519c                	lw	a5,32(a1)
   137c4:	c45c                	sw	a5,12(s0)
   137c6:	00904663          	bgtz	s1,137d2 <__sflush_r+0x108>
   137ca:	a83d                	j	13808 <__sflush_r+0x13e>
   137cc:	992a                	add	s2,s2,a0
   137ce:	02905d63          	blez	s1,13808 <__sflush_r+0x13e>
   137d2:	603c                	ld	a5,64(s0)
   137d4:	780c                	ld	a1,48(s0)
   137d6:	86a6                	mv	a3,s1
   137d8:	864a                	mv	a2,s2
   137da:	854e                	mv	a0,s3
   137dc:	9782                	jalr	a5
   137de:	9c89                	subw	s1,s1,a0
   137e0:	fea046e3          	bgtz	a0,137cc <__sflush_r+0x102>
   137e4:	01041783          	lh	a5,16(s0)
   137e8:	6942                	ld	s2,16(sp)
   137ea:	0407e793          	ori	a5,a5,64
   137ee:	70a2                	ld	ra,40(sp)
   137f0:	00f41823          	sh	a5,16(s0)
   137f4:	7402                	ld	s0,32(sp)
   137f6:	64e2                	ld	s1,24(sp)
   137f8:	69a2                	ld	s3,8(sp)
   137fa:	557d                	li	a0,-1
   137fc:	6145                	addi	sp,sp,48
   137fe:	8082                	ret
   13800:	59b4                	lw	a3,112(a1)
   13802:	eed048e3          	bgtz	a3,136f2 <__sflush_r+0x28>
   13806:	bf51                	j	1379a <__sflush_r+0xd0>
   13808:	64e2                	ld	s1,24(sp)
   1380a:	6942                	ld	s2,16(sp)
   1380c:	b779                	j	1379a <__sflush_r+0xd0>
   1380e:	6850                	ld	a2,144(s0)
   13810:	bf19                	j	13726 <__sflush_r+0x5c>
   13812:	6c14                	ld	a3,24(s0)
   13814:	777d                	lui	a4,0xfffff
   13816:	7ff70713          	addi	a4,a4,2047 # fffffffffffff7ff <__BSS_END__+0xfffffffffffe398f>
   1381a:	8f7d                	and	a4,a4,a5
   1381c:	00e41823          	sh	a4,16(s0)
   13820:	00042423          	sw	zero,8(s0)
   13824:	e014                	sd	a3,0(s0)
   13826:	03379713          	slli	a4,a5,0x33
   1382a:	f4075ae3          	bgez	a4,1377e <__sflush_r+0xb4>
   1382e:	6c2c                	ld	a1,88(s0)
   13830:	e848                	sd	a0,144(s0)
   13832:	0099a023          	sw	s1,0(s3)
   13836:	f9a1                	bnez	a1,13786 <__sflush_r+0xbc>
   13838:	64e2                	ld	s1,24(sp)
   1383a:	b785                	j	1379a <__sflush_r+0xd0>
   1383c:	0009a783          	lw	a5,0(s3)
   13840:	ec078fe3          	beqz	a5,1371e <__sflush_r+0x54>
   13844:	4775                	li	a4,29
   13846:	00e78a63          	beq	a5,a4,1385a <__sflush_r+0x190>
   1384a:	4759                	li	a4,22
   1384c:	00e78763          	beq	a5,a4,1385a <__sflush_r+0x190>
   13850:	01041783          	lh	a5,16(s0)
   13854:	0407e793          	ori	a5,a5,64
   13858:	bf59                	j	137ee <__sflush_r+0x124>
   1385a:	0099a023          	sw	s1,0(s3)
   1385e:	64e2                	ld	s1,24(sp)
   13860:	bf2d                	j	1379a <__sflush_r+0xd0>

0000000000013862 <_fflush_r>:
   13862:	1101                	addi	sp,sp,-32
   13864:	e822                	sd	s0,16(sp)
   13866:	ec06                	sd	ra,24(sp)
   13868:	842a                	mv	s0,a0
   1386a:	c119                	beqz	a0,13870 <_fflush_r+0xe>
   1386c:	653c                	ld	a5,72(a0)
   1386e:	cf91                	beqz	a5,1388a <_fflush_r+0x28>
   13870:	01059783          	lh	a5,16(a1)
   13874:	e791                	bnez	a5,13880 <_fflush_r+0x1e>
   13876:	60e2                	ld	ra,24(sp)
   13878:	6442                	ld	s0,16(sp)
   1387a:	4501                	li	a0,0
   1387c:	6105                	addi	sp,sp,32
   1387e:	8082                	ret
   13880:	8522                	mv	a0,s0
   13882:	6442                	ld	s0,16(sp)
   13884:	60e2                	ld	ra,24(sp)
   13886:	6105                	addi	sp,sp,32
   13888:	b589                	j	136ca <__sflush_r>
   1388a:	e42e                	sd	a1,8(sp)
   1388c:	b52fd0ef          	jal	10bde <__sinit>
   13890:	65a2                	ld	a1,8(sp)
   13892:	bff9                	j	13870 <_fflush_r+0xe>

0000000000013894 <fflush>:
   13894:	cd05                	beqz	a0,138cc <fflush+0x38>
   13896:	85aa                	mv	a1,a0
   13898:	2301b503          	ld	a0,560(gp) # 1b8a0 <_impure_ptr>
   1389c:	c119                	beqz	a0,138a2 <fflush+0xe>
   1389e:	653c                	ld	a5,72(a0)
   138a0:	c799                	beqz	a5,138ae <fflush+0x1a>
   138a2:	01059783          	lh	a5,16(a1)
   138a6:	e399                	bnez	a5,138ac <fflush+0x18>
   138a8:	4501                	li	a0,0
   138aa:	8082                	ret
   138ac:	bd39                	j	136ca <__sflush_r>
   138ae:	1101                	addi	sp,sp,-32
   138b0:	e42e                	sd	a1,8(sp)
   138b2:	e02a                	sd	a0,0(sp)
   138b4:	ec06                	sd	ra,24(sp)
   138b6:	b28fd0ef          	jal	10bde <__sinit>
   138ba:	65a2                	ld	a1,8(sp)
   138bc:	6502                	ld	a0,0(sp)
   138be:	01059783          	lh	a5,16(a1)
   138c2:	ef91                	bnez	a5,138de <fflush+0x4a>
   138c4:	60e2                	ld	ra,24(sp)
   138c6:	4501                	li	a0,0
   138c8:	6105                	addi	sp,sp,32
   138ca:	8082                	ret
   138cc:	65d1                	lui	a1,0x14
   138ce:	e8818613          	addi	a2,gp,-376 # 1b4f8 <__sglue>
   138d2:	86258593          	addi	a1,a1,-1950 # 13862 <_fflush_r>
   138d6:	ea018513          	addi	a0,gp,-352 # 1b510 <_impure_data>
   138da:	b3afd06f          	j	10c14 <_fwalk_sglue>
   138de:	60e2                	ld	ra,24(sp)
   138e0:	6105                	addi	sp,sp,32
   138e2:	b3e5                	j	136ca <__sflush_r>

00000000000138e4 <__sfvwrite_r>:
   138e4:	6a1c                	ld	a5,16(a2)
   138e6:	1a078063          	beqz	a5,13a86 <__sfvwrite_r+0x1a2>
   138ea:	01059703          	lh	a4,16(a1)
   138ee:	711d                	addi	sp,sp,-96
   138f0:	e8a2                	sd	s0,80(sp)
   138f2:	f852                	sd	s4,48(sp)
   138f4:	f05a                	sd	s6,32(sp)
   138f6:	ec86                	sd	ra,88(sp)
   138f8:	00877793          	andi	a5,a4,8
   138fc:	8a32                	mv	s4,a2
   138fe:	8b2a                	mv	s6,a0
   13900:	842e                	mv	s0,a1
   13902:	c7bd                	beqz	a5,13970 <__sfvwrite_r+0x8c>
   13904:	6d9c                	ld	a5,24(a1)
   13906:	c7ad                	beqz	a5,13970 <__sfvwrite_r+0x8c>
   13908:	e4a6                	sd	s1,72(sp)
   1390a:	e0ca                	sd	s2,64(sp)
   1390c:	fc4e                	sd	s3,56(sp)
   1390e:	f456                	sd	s5,40(sp)
   13910:	00277793          	andi	a5,a4,2
   13914:	000a3483          	ld	s1,0(s4)
   13918:	cfad                	beqz	a5,13992 <__sfvwrite_r+0xae>
   1391a:	80000ab7          	lui	s5,0x80000
   1391e:	c00aca93          	xori	s5,s5,-1024
   13922:	4981                	li	s3,0
   13924:	4901                	li	s2,0
   13926:	864e                	mv	a2,s3
   13928:	855a                	mv	a0,s6
   1392a:	14090863          	beqz	s2,13a7a <__sfvwrite_r+0x196>
   1392e:	800007b7          	lui	a5,0x80000
   13932:	86ca                	mv	a3,s2
   13934:	012af463          	bgeu	s5,s2,1393c <__sfvwrite_r+0x58>
   13938:	c007c693          	xori	a3,a5,-1024
   1393c:	603c                	ld	a5,64(s0)
   1393e:	780c                	ld	a1,48(s0)
   13940:	2681                	sext.w	a3,a3
   13942:	9782                	jalr	a5
   13944:	2ca05c63          	blez	a0,13c1c <__sfvwrite_r+0x338>
   13948:	010a3783          	ld	a5,16(s4)
   1394c:	99aa                	add	s3,s3,a0
   1394e:	40a90933          	sub	s2,s2,a0
   13952:	8f89                	sub	a5,a5,a0
   13954:	00fa3823          	sd	a5,16(s4)
   13958:	f7f9                	bnez	a5,13926 <__sfvwrite_r+0x42>
   1395a:	64a6                	ld	s1,72(sp)
   1395c:	6906                	ld	s2,64(sp)
   1395e:	79e2                	ld	s3,56(sp)
   13960:	7aa2                	ld	s5,40(sp)
   13962:	4501                	li	a0,0
   13964:	60e6                	ld	ra,88(sp)
   13966:	6446                	ld	s0,80(sp)
   13968:	7a42                	ld	s4,48(sp)
   1396a:	7b02                	ld	s6,32(sp)
   1396c:	6125                	addi	sp,sp,96
   1396e:	8082                	ret
   13970:	85a2                	mv	a1,s0
   13972:	855a                	mv	a0,s6
   13974:	2c0000ef          	jal	13c34 <__swsetup_r>
   13978:	1e051663          	bnez	a0,13b64 <__sfvwrite_r+0x280>
   1397c:	01041703          	lh	a4,16(s0)
   13980:	e4a6                	sd	s1,72(sp)
   13982:	e0ca                	sd	s2,64(sp)
   13984:	fc4e                	sd	s3,56(sp)
   13986:	f456                	sd	s5,40(sp)
   13988:	00277793          	andi	a5,a4,2
   1398c:	000a3483          	ld	s1,0(s4)
   13990:	f7c9                	bnez	a5,1391a <__sfvwrite_r+0x36>
   13992:	ec5e                	sd	s7,24(sp)
   13994:	e862                	sd	s8,16(sp)
   13996:	e466                	sd	s9,8(sp)
   13998:	00177793          	andi	a5,a4,1
   1399c:	e7fd                	bnez	a5,13a8a <__sfvwrite_r+0x1a6>
   1399e:	80000bb7          	lui	s7,0x80000
   139a2:	fffbcb93          	not	s7,s7
   139a6:	4c01                	li	s8,0
   139a8:	4901                	li	s2,0
   139aa:	0c090263          	beqz	s2,13a6e <__sfvwrite_r+0x18a>
   139ae:	20077793          	andi	a5,a4,512
   139b2:	00c42a83          	lw	s5,12(s0)
   139b6:	6008                	ld	a0,0(s0)
   139b8:	1a078863          	beqz	a5,13b68 <__sfvwrite_r+0x284>
   139bc:	07596e63          	bltu	s2,s5,13a38 <__sfvwrite_r+0x154>
   139c0:	48077793          	andi	a5,a4,1152
   139c4:	22078163          	beqz	a5,13be6 <__sfvwrite_r+0x302>
   139c8:	5014                	lw	a3,32(s0)
   139ca:	6c0c                	ld	a1,24(s0)
   139cc:	0016979b          	slliw	a5,a3,0x1
   139d0:	9fb5                	addw	a5,a5,a3
   139d2:	8d0d                	sub	a0,a0,a1
   139d4:	01f7d99b          	srliw	s3,a5,0x1f
   139d8:	00050a9b          	sext.w	s5,a0
   139dc:	00f989bb          	addw	s3,s3,a5
   139e0:	001a8793          	addi	a5,s5,1 # ffffffff80000001 <__BSS_END__+0xffffffff7ffe4191>
   139e4:	4019d99b          	sraiw	s3,s3,0x1
   139e8:	97ca                	add	a5,a5,s2
   139ea:	00f9f563          	bgeu	s3,a5,139f4 <__sfvwrite_r+0x110>
   139ee:	2505                	addiw	a0,a0,1
   139f0:	012509bb          	addw	s3,a0,s2
   139f4:	40077713          	andi	a4,a4,1024
   139f8:	1e070963          	beqz	a4,13bea <__sfvwrite_r+0x306>
   139fc:	85ce                	mv	a1,s3
   139fe:	855a                	mv	a0,s6
   13a00:	983fc0ef          	jal	10382 <_malloc_r>
   13a04:	8caa                	mv	s9,a0
   13a06:	20050e63          	beqz	a0,13c22 <__sfvwrite_r+0x33e>
   13a0a:	6c0c                	ld	a1,24(s0)
   13a0c:	8656                	mv	a2,s5
   13a0e:	5a0000ef          	jal	13fae <memcpy>
   13a12:	01045783          	lhu	a5,16(s0)
   13a16:	b7f7f793          	andi	a5,a5,-1153
   13a1a:	0807e793          	ori	a5,a5,128
   13a1e:	00f41823          	sh	a5,16(s0)
   13a22:	015c8533          	add	a0,s9,s5
   13a26:	41598abb          	subw	s5,s3,s5
   13a2a:	01943c23          	sd	s9,24(s0)
   13a2e:	e008                	sd	a0,0(s0)
   13a30:	01542623          	sw	s5,12(s0)
   13a34:	03342023          	sw	s3,32(s0)
   13a38:	8cca                	mv	s9,s2
   13a3a:	8aca                	mv	s5,s2
   13a3c:	8656                	mv	a2,s5
   13a3e:	85e2                	mv	a1,s8
   13a40:	488000ef          	jal	13ec8 <memmove>
   13a44:	4458                	lw	a4,12(s0)
   13a46:	601c                	ld	a5,0(s0)
   13a48:	89ca                	mv	s3,s2
   13a4a:	4197073b          	subw	a4,a4,s9
   13a4e:	97d6                	add	a5,a5,s5
   13a50:	c458                	sw	a4,12(s0)
   13a52:	e01c                	sd	a5,0(s0)
   13a54:	4901                	li	s2,0
   13a56:	010a3783          	ld	a5,16(s4)
   13a5a:	9c4e                	add	s8,s8,s3
   13a5c:	413787b3          	sub	a5,a5,s3
   13a60:	00fa3823          	sd	a5,16(s4)
   13a64:	c7c1                	beqz	a5,13aec <__sfvwrite_r+0x208>
   13a66:	01041703          	lh	a4,16(s0)
   13a6a:	f40912e3          	bnez	s2,139ae <__sfvwrite_r+0xca>
   13a6e:	0004bc03          	ld	s8,0(s1)
   13a72:	0084b903          	ld	s2,8(s1)
   13a76:	04c1                	addi	s1,s1,16
   13a78:	bf0d                	j	139aa <__sfvwrite_r+0xc6>
   13a7a:	0004b983          	ld	s3,0(s1)
   13a7e:	0084b903          	ld	s2,8(s1)
   13a82:	04c1                	addi	s1,s1,16
   13a84:	b54d                	j	13926 <__sfvwrite_r+0x42>
   13a86:	4501                	li	a0,0
   13a88:	8082                	ret
   13a8a:	4981                	li	s3,0
   13a8c:	4501                	li	a0,0
   13a8e:	4c81                	li	s9,0
   13a90:	4c01                	li	s8,0
   13a92:	060c0163          	beqz	s8,13af4 <__sfvwrite_r+0x210>
   13a96:	c53d                	beqz	a0,13b04 <__sfvwrite_r+0x220>
   13a98:	8bce                	mv	s7,s3
   13a9a:	013c7363          	bgeu	s8,s3,13aa0 <__sfvwrite_r+0x1bc>
   13a9e:	8be2                	mv	s7,s8
   13aa0:	6008                	ld	a0,0(s0)
   13aa2:	6c1c                	ld	a5,24(s0)
   13aa4:	5014                	lw	a3,32(s0)
   13aa6:	895e                	mv	s2,s7
   13aa8:	00a7f763          	bgeu	a5,a0,13ab6 <__sfvwrite_r+0x1d2>
   13aac:	445c                	lw	a5,12(s0)
   13aae:	00d78abb          	addw	s5,a5,a3
   13ab2:	077ac463          	blt	s5,s7,13b1a <__sfvwrite_r+0x236>
   13ab6:	10dbca63          	blt	s7,a3,13bca <__sfvwrite_r+0x2e6>
   13aba:	603c                	ld	a5,64(s0)
   13abc:	780c                	ld	a1,48(s0)
   13abe:	8666                	mv	a2,s9
   13ac0:	855a                	mv	a0,s6
   13ac2:	9782                	jalr	a5
