	.text
	.attribute	4, 16
	.attribute	5, "rv64i2p0_m2p0_a2p0"
	.file	"gomodule"
                                        # Start of file scope inline assembly
	.section	.go_export,"e",@progbits
	.ascii	"v3;\n"
	.ascii	"package "
	.ascii	"main"
	.byte	10
	.ascii	"pkgpath "
	.ascii	"main"
	.byte	10
	.ascii	"import "
	.ascii	"fmt"
	.byte	32
	.ascii	"fmt"
	.ascii	" \""
	.ascii	"fmt"
	.ascii	"\"\n"
	.ascii	"import "
	.ascii	"runtime"
	.byte	32
	.ascii	"runtime"
	.ascii	" \""
	.ascii	"runtime"
	.ascii	"\"\n"
	.ascii	"import "
	.ascii	"unsafe"
	.byte	32
	.ascii	"unsafe"
	.ascii	" \""
	.ascii	"unsafe"
	.ascii	"\"\n"
	.ascii	"init"
	.byte	32
	.ascii	"errors"
	.byte	32
	.ascii	"errors..import"
	.byte	32
	.ascii	"fmt"
	.byte	32
	.ascii	"fmt..import"
	.byte	32
	.ascii	"cpu"
	.byte	32
	.ascii	"internal_1cpu..import"
	.byte	32
	.ascii	"oserror"
	.byte	32
	.ascii	"internal_1oserror..import"
	.byte	32
	.ascii	"poll"
	.byte	32
	.ascii	"internal_1poll..import"
	.byte	32
	.ascii	"reflectlite"
	.byte	32
	.ascii	"internal_1reflectlite..import"
	.byte	32
	.ascii	"testlog"
	.byte	32
	.ascii	"internal_1testlog..import"
	.byte	32
	.ascii	"io"
	.byte	32
	.ascii	"io..import"
	.byte	32
	.ascii	"fs"
	.byte	32
	.ascii	"io_1fs..import"
	.byte	32
	.ascii	"math"
	.byte	32
	.ascii	"math..import"
	.byte	32
	.ascii	"os"
	.byte	32
	.ascii	"os..import"
	.byte	32
	.ascii	"path"
	.byte	32
	.ascii	"path..import"
	.byte	32
	.ascii	"reflect"
	.byte	32
	.ascii	"reflect..import"
	.byte	32
	.ascii	"runtime"
	.byte	32
	.ascii	"runtime..import"
	.byte	32
	.ascii	"sort"
	.byte	32
	.ascii	"sort..import"
	.byte	32
	.ascii	"strconv"
	.byte	32
	.ascii	"strconv..import"
	.byte	32
	.ascii	"sync"
	.byte	32
	.ascii	"sync..import"
	.byte	32
	.ascii	"syscall"
	.byte	32
	.ascii	"syscall..import"
	.byte	32
	.ascii	"time"
	.byte	32
	.ascii	"time..import"
	.byte	32
	.ascii	"unicode"
	.byte	32
	.ascii	"unicode..import"
	.byte	32
	.ascii	"abi"
	.byte	32
	.ascii	"~internal_1abi"
	.byte	32
	.ascii	"bytealg"
	.byte	32
	.ascii	"~internal_1bytealg"
	.byte	32
	.ascii	"fmtsort"
	.byte	32
	.ascii	"~internal_1fmtsort"
	.byte	32
	.ascii	"goarch"
	.byte	32
	.ascii	"~internal_1goarch"
	.byte	32
	.ascii	"goexperiment"
	.byte	32
	.ascii	"~internal_1goexperiment"
	.byte	32
	.ascii	"goos"
	.byte	32
	.ascii	"~internal_1goos"
	.byte	32
	.ascii	"itoa"
	.byte	32
	.ascii	"~internal_1itoa"
	.byte	32
	.ascii	"race"
	.byte	32
	.ascii	"~internal_1race"
	.byte	32
	.ascii	"execenv"
	.byte	32
	.ascii	"~internal_1syscall_1execenv"
	.byte	32
	.ascii	"unix"
	.byte	32
	.ascii	"~internal_1syscall_1unix"
	.byte	32
	.ascii	"unsafeheader"
	.byte	32
	.ascii	"~internal_1unsafeheader"
	.byte	32
	.ascii	"bits"
	.byte	32
	.ascii	"~math_1bits"
	.byte	32
	.ascii	"atomic"
	.byte	32
	.ascii	"~runtime_1internal_1atomic"
	.byte	32
	.ascii	"math"
	.byte	32
	.ascii	"~runtime_1internal_1math"
	.byte	32
	.ascii	"sys"
	.byte	32
	.ascii	"~runtime_1internal_1sys"
	.byte	32
	.ascii	"atomic"
	.byte	32
	.ascii	"~sync_1atomic"
	.byte	32
	.ascii	"utf8"
	.byte	32
	.ascii	"~unicode_1utf8"
	.byte	10
	.ascii	"init_graph"
	.byte	32
	.byte	48
	.byte	32
	.byte	50
	.byte	32
	.byte	48
	.byte	32
	.byte	53
	.byte	32
	.byte	48
	.byte	32
	.ascii	"13"
	.byte	32
	.byte	49
	.byte	32
	.byte	48
	.byte	32
	.byte	49
	.byte	32
	.byte	50
	.byte	32
	.byte	49
	.byte	32
	.byte	51
	.byte	32
	.byte	49
	.byte	32
	.byte	52
	.byte	32
	.byte	49
	.byte	32
	.byte	53
	.byte	32
	.byte	49
	.byte	32
	.byte	54
	.byte	32
	.byte	49
	.byte	32
	.byte	55
	.byte	32
	.byte	49
	.byte	32
	.byte	56
	.byte	32
	.byte	49
	.byte	32
	.byte	57
	.byte	32
	.byte	49
	.byte	32
	.ascii	"10"
	.byte	32
	.byte	49
	.byte	32
	.ascii	"11"
	.byte	32
	.byte	49
	.byte	32
	.ascii	"12"
	.byte	32
	.byte	49
	.byte	32
	.ascii	"13"
	.byte	32
	.byte	49
	.byte	32
	.ascii	"14"
	.byte	32
	.byte	49
	.byte	32
	.ascii	"15"
	.byte	32
	.byte	49
	.byte	32
	.ascii	"16"
	.byte	32
	.byte	49
	.byte	32
	.ascii	"17"
	.byte	32
	.byte	49
	.byte	32
	.ascii	"18"
	.byte	32
	.byte	49
	.byte	32
	.ascii	"19"
	.byte	32
	.byte	51
	.byte	32
	.byte	48
	.byte	32
	.byte	51
	.byte	32
	.byte	50
	.byte	32
	.byte	51
	.byte	32
	.byte	53
	.byte	32
	.byte	51
	.byte	32
	.ascii	"13"
	.byte	32
	.byte	52
	.byte	32
	.byte	48
	.byte	32
	.byte	52
	.byte	32
	.byte	50
	.byte	32
	.byte	52
	.byte	32
	.byte	51
	.byte	32
	.byte	52
	.byte	32
	.byte	53
	.byte	32
	.byte	52
	.byte	32
	.byte	55
	.byte	32
	.byte	52
	.byte	32
	.ascii	"13"
	.byte	32
	.byte	52
	.byte	32
	.ascii	"16"
	.byte	32
	.byte	52
	.byte	32
	.ascii	"17"
	.byte	32
	.byte	52
	.byte	32
	.ascii	"18"
	.byte	32
	.byte	53
	.byte	32
	.byte	50
	.byte	32
	.byte	53
	.byte	32
	.ascii	"13"
	.byte	32
	.byte	54
	.byte	32
	.byte	50
	.byte	32
	.byte	54
	.byte	32
	.ascii	"13"
	.byte	32
	.byte	54
	.byte	32
	.ascii	"16"
	.byte	32
	.byte	55
	.byte	32
	.byte	48
	.byte	32
	.byte	55
	.byte	32
	.byte	50
	.byte	32
	.byte	55
	.byte	32
	.byte	53
	.byte	32
	.byte	55
	.byte	32
	.ascii	"13"
	.byte	32
	.byte	55
	.byte	32
	.ascii	"16"
	.byte	32
	.byte	56
	.byte	32
	.byte	48
	.byte	32
	.byte	56
	.byte	32
	.byte	50
	.byte	32
	.byte	56
	.byte	32
	.byte	51
	.byte	32
	.byte	56
	.byte	32
	.byte	53
	.byte	32
	.byte	56
	.byte	32
	.byte	55
	.byte	32
	.byte	56
	.byte	32
	.ascii	"11"
	.byte	32
	.byte	56
	.byte	32
	.ascii	"13"
	.byte	32
	.byte	56
	.byte	32
	.ascii	"14"
	.byte	32
	.byte	56
	.byte	32
	.ascii	"16"
	.byte	32
	.byte	56
	.byte	32
	.ascii	"17"
	.byte	32
	.byte	56
	.byte	32
	.ascii	"18"
	.byte	32
	.byte	57
	.byte	32
	.byte	50
	.byte	32
	.ascii	"10"
	.byte	32
	.byte	48
	.byte	32
	.ascii	"10"
	.byte	32
	.byte	50
	.byte	32
	.ascii	"10"
	.byte	32
	.byte	51
	.byte	32
	.ascii	"10"
	.byte	32
	.byte	52
	.byte	32
	.ascii	"10"
	.byte	32
	.byte	53
	.byte	32
	.ascii	"10"
	.byte	32
	.byte	54
	.byte	32
	.ascii	"10"
	.byte	32
	.byte	55
	.byte	32
	.ascii	"10"
	.byte	32
	.byte	56
	.byte	32
	.ascii	"10"
	.byte	32
	.ascii	"11"
	.byte	32
	.ascii	"10"
	.byte	32
	.ascii	"13"
	.byte	32
	.ascii	"10"
	.byte	32
	.ascii	"14"
	.byte	32
	.ascii	"10"
	.byte	32
	.ascii	"16"
	.byte	32
	.ascii	"10"
	.byte	32
	.ascii	"17"
	.byte	32
	.ascii	"10"
	.byte	32
	.ascii	"18"
	.byte	32
	.ascii	"11"
	.byte	32
	.byte	48
	.byte	32
	.ascii	"11"
	.byte	32
	.byte	50
	.byte	32
	.ascii	"11"
	.byte	32
	.byte	53
	.byte	32
	.ascii	"11"
	.byte	32
	.ascii	"13"
	.byte	32
	.ascii	"12"
	.byte	32
	.byte	48
	.byte	32
	.ascii	"12"
	.byte	32
	.byte	50
	.byte	32
	.ascii	"12"
	.byte	32
	.byte	53
	.byte	32
	.ascii	"12"
	.byte	32
	.byte	57
	.byte	32
	.ascii	"12"
	.byte	32
	.ascii	"13"
	.byte	32
	.ascii	"12"
	.byte	32
	.ascii	"15"
	.byte	32
	.ascii	"12"
	.byte	32
	.ascii	"16"
	.byte	32
	.ascii	"12"
	.byte	32
	.ascii	"19"
	.byte	32
	.ascii	"13"
	.byte	32
	.byte	50
	.byte	32
	.ascii	"14"
	.byte	32
	.byte	50
	.byte	32
	.ascii	"14"
	.byte	32
	.byte	53
	.byte	32
	.ascii	"14"
	.byte	32
	.ascii	"13"
	.byte	32
	.ascii	"15"
	.byte	32
	.byte	48
	.byte	32
	.ascii	"15"
	.byte	32
	.byte	50
	.byte	32
	.ascii	"15"
	.byte	32
	.byte	53
	.byte	32
	.ascii	"15"
	.byte	32
	.byte	57
	.byte	32
	.ascii	"15"
	.byte	32
	.ascii	"13"
	.byte	32
	.ascii	"16"
	.byte	32
	.byte	50
	.byte	32
	.ascii	"16"
	.byte	32
	.ascii	"13"
	.byte	32
	.ascii	"17"
	.byte	32
	.byte	48
	.byte	32
	.ascii	"17"
	.byte	32
	.byte	50
	.byte	32
	.ascii	"17"
	.byte	32
	.byte	51
	.byte	32
	.ascii	"17"
	.byte	32
	.byte	53
	.byte	32
	.ascii	"17"
	.byte	32
	.ascii	"13"
	.byte	32
	.ascii	"17"
	.byte	32
	.ascii	"16"
	.byte	32
	.ascii	"18"
	.byte	32
	.byte	48
	.byte	32
	.ascii	"18"
	.byte	32
	.byte	50
	.byte	32
	.ascii	"18"
	.byte	32
	.byte	51
	.byte	32
	.ascii	"18"
	.byte	32
	.byte	53
	.byte	32
	.ascii	"18"
	.byte	32
	.ascii	"13"
	.byte	32
	.ascii	"18"
	.byte	32
	.ascii	"16"
	.byte	32
	.ascii	"18"
	.byte	32
	.ascii	"17"
	.byte	10
	.ascii	"types 2 1"
	.ascii	" 22"
	.byte	10
	.ascii	"type 1 (? <type -16>)\n"
	.ascii	"func "
	.ascii	"/*asm "
	.ascii	"runtime.setmodinfo"
	.ascii	" */ "
	.byte	46
	.ascii	"__set_debug_modinfo__"
	.ascii	" ("
	.byte	63
	.byte	32
	.ascii	"<type -16>"
	.byte	41
	.byte	10
	.ascii	"checksum 1A67116449E53A699762E00FDF4DC61F86DA7797\n"
	.text

                                        # End of file scope inline assembly
	.file	1 "<stdin>"
	.globl	__go_init_main                  # -- Begin function __go_init_main
	.p2align	2
	.type	__go_init_main,@function
__go_init_main:                         # @__go_init_main
.Lfunc_begin0:
	.file	2 "." "example.go"
	.loc	2 1 0                           # example.go:1:0
	.cfi_startproc
# %bb.0:                                # %entry
	addi	sp, sp, -16
	.cfi_def_cfa_offset 16
.Ltmp0:
	.file	3 "<built-in>"
	.loc	3 1 1 prologue_end              # <built-in>:1:1
	sd	ra, 8(sp)                       # 8-byte Folded Spill
	.cfi_offset ra, -8
	lui	a0, %hi(go..typelists)
	addi	a2, a0, %lo(go..typelists)
	li	a1, 38
	call	runtime.registerTypeDescriptors@plt
	call	internal_1cpu..import@plt
	call	unicode..import@plt
	call	math..import@plt
	call	runtime..import@plt
	call	internal_1reflectlite..import@plt
	call	sync..import@plt
	call	errors..import@plt
	call	sort..import@plt
	call	internal_1testlog..import@plt
	call	io..import@plt
	call	internal_1oserror..import@plt
	call	path..import@plt
	call	strconv..import@plt
	call	reflect..import@plt
	call	syscall..import@plt
	call	time..import@plt
	call	io_1fs..import@plt
	call	internal_1poll..import@plt
	call	os..import@plt
	call	fmt..import@plt
	.file	4 "/tmp/go-build91274481/b001" "_gomod_.go"
	.loc	4 5 1                           # _gomod_.go:5:1
	call	main.main..init0@plt
	ld	ra, 8(sp)                       # 8-byte Folded Reload
	addi	sp, sp, 16
	ret
.Ltmp1:
.Lfunc_end0:
	.size	__go_init_main, .Lfunc_end0-__go_init_main
	.cfi_endproc
                                        # -- End function
	.globl	main.main                       # -- Begin function main.main
	.p2align	2
	.type	main.main,@function
main.main:                              # @main.main
.Lfunc_begin1:
	.loc	2 5 0                           # example.go:5:0
	.cfi_startproc
# %bb.0:                                # %entry
	addi	sp, sp, -96
	.cfi_def_cfa_offset 96
	sd	ra, 88(sp)                      # 8-byte Folded Spill
	.cfi_offset ra, -8
	lui	a0, %hi(.Lconst.3)
	ld	a1, %lo(.Lconst.3)(a0)
	addi	a0, a0, %lo(.Lconst.3)
	ld	a0, 8(a0)
	sd	a1, 48(sp)
	sd	a0, 56(sp)
	addi	a0, sp, 48
.Ltmp2:
	.loc	2 6 6 prologue_end              # example.go:6:6
	sd	a0, 64(sp)
	li	a1, 1
	sd	a1, 72(sp)
	sd	a1, 80(sp)
	sd	a0, 0(sp)
	sd	a1, 8(sp)
	sd	a1, 16(sp)
	addi	a0, sp, 24
	mv	a2, sp
	call	fmt.Println@plt
	ld	ra, 88(sp)                      # 8-byte Folded Reload
	addi	sp, sp, 96
	ret
.Ltmp3:
.Lfunc_end1:
	.size	main.main, .Lfunc_end1-main.main
	.cfi_endproc
                                        # -- End function
	.globl	main.main..init0                # -- Begin function main.main..init0
	.p2align	2
	.type	main.main..init0,@function
main.main..init0:                       # @main.main..init0
.Lfunc_begin2:
	.loc	4 5 0                           # _gomod_.go:5:0
	.cfi_startproc
# %bb.0:                                # %entry
	addi	sp, sp, -16
	.cfi_def_cfa_offset 16
.Ltmp4:
	.loc	4 5 15 prologue_end             # _gomod_.go:5:15
	sd	ra, 8(sp)                       # 8-byte Folded Spill
	.cfi_offset ra, -8
	lui	a0, %hi(.Lconst.4)
	addi	a1, a0, %lo(.Lconst.4)
	li	a2, 262
	call	runtime.setmodinfo@plt
	ld	ra, 8(sp)                       # 8-byte Folded Reload
	addi	sp, sp, 16
	ret
.Ltmp5:
.Lfunc_end2:
	.size	main.main..init0, .Lfunc_end2-main.main..init0
	.cfi_endproc
                                        # -- End function
	.globl	main.struct_4runtime_0gList_cruntime_0n_bint32_5..eq # -- Begin function main.struct_4runtime_0gList_cruntime_0n_bint32_5..eq
	.p2align	2
	.type	main.struct_4runtime_0gList_cruntime_0n_bint32_5..eq,@function
main.struct_4runtime_0gList_cruntime_0n_bint32_5..eq: # @main.struct_4runtime_0gList_cruntime_0n_bint32_5..eq
.Lfunc_begin3:
	.loc	3 1 0                           # <built-in>:1:0
	.cfi_startproc
# %bb.0:                                # %entry
	#DEBUG_VALUE: main.struct_4runtime_0gList_cruntime_0n_bint32_5..eq:key1 <- $x11
	#DEBUG_VALUE: main.struct_4runtime_0gList_cruntime_0n_bint32_5..eq:key2 <- $x12
	addi	sp, sp, -16
	.cfi_def_cfa_offset 16
.Ltmp6:
	.loc	3 0 0 is_stmt 0                 # <built-in>:0:0
	sd	ra, 8(sp)                       # 8-byte Folded Spill
	.cfi_offset ra, -8
.Ltmp7:
	#DEBUG_VALUE: main.struct_4runtime_0gList_cruntime_0n_bint32_5..eq:$ret2 <- 0
	beqz	a1, .LBB3_6
.Ltmp8:
# %bb.1:                                # %else.5
	#DEBUG_VALUE: main.struct_4runtime_0gList_cruntime_0n_bint32_5..eq:$ret2 <- 0
	#DEBUG_VALUE: main.struct_4runtime_0gList_cruntime_0n_bint32_5..eq:key2 <- $x12
	#DEBUG_VALUE: main.struct_4runtime_0gList_cruntime_0n_bint32_5..eq:key1 <- $x11
	beqz	a2, .LBB3_6
.Ltmp9:
# %bb.2:                                # %else.6
	#DEBUG_VALUE: main.struct_4runtime_0gList_cruntime_0n_bint32_5..eq:$ret2 <- 0
	#DEBUG_VALUE: main.struct_4runtime_0gList_cruntime_0n_bint32_5..eq:key2 <- $x12
	#DEBUG_VALUE: main.struct_4runtime_0gList_cruntime_0n_bint32_5..eq:key1 <- $x11
	.loc	3 1 1 prologue_end is_stmt 1    # <built-in>:1:1
	ld	a0, 0(a1)
	ld	a3, 0(a2)
	bne	a0, a3, .LBB3_4
.Ltmp10:
# %bb.3:                                # %else.9
	#DEBUG_VALUE: main.struct_4runtime_0gList_cruntime_0n_bint32_5..eq:$ret2 <- 0
	#DEBUG_VALUE: main.struct_4runtime_0gList_cruntime_0n_bint32_5..eq:key2 <- $x12
	#DEBUG_VALUE: main.struct_4runtime_0gList_cruntime_0n_bint32_5..eq:key1 <- $x11
	lw	a0, 8(a1)
	lw	a1, 8(a2)
.Ltmp11:
	xor	a0, a0, a1
	seqz	a0, a0
	j	.LBB3_5
.Ltmp12:
.LBB3_4:
	#DEBUG_VALUE: main.struct_4runtime_0gList_cruntime_0n_bint32_5..eq:$ret2 <- 0
	#DEBUG_VALUE: main.struct_4runtime_0gList_cruntime_0n_bint32_5..eq:key2 <- $x12
	#DEBUG_VALUE: main.struct_4runtime_0gList_cruntime_0n_bint32_5..eq:key1 <- $x11
	.loc	3 0 1 is_stmt 0                 # <built-in>:0:1
	li	a0, 0
.Ltmp13:
.LBB3_5:                                # %common.ret
	#DEBUG_VALUE: main.struct_4runtime_0gList_cruntime_0n_bint32_5..eq:$ret2 <- 0
	#DEBUG_VALUE: main.struct_4runtime_0gList_cruntime_0n_bint32_5..eq:key2 <- $x12
	.loc	3 1 1                           # <built-in>:1:1
	ld	ra, 8(sp)                       # 8-byte Folded Reload
	addi	sp, sp, 16
	ret
.Ltmp14:
.LBB3_6:                                # %then.5
	#DEBUG_VALUE: main.struct_4runtime_0gList_cruntime_0n_bint32_5..eq:$ret2 <- 0
	#DEBUG_VALUE: main.struct_4runtime_0gList_cruntime_0n_bint32_5..eq:key2 <- $x12
	#DEBUG_VALUE: main.struct_4runtime_0gList_cruntime_0n_bint32_5..eq:key1 <- $x11
	call	runtime.panicmem@plt
.Ltmp15:
.Lfunc_end3:
	.size	main.struct_4runtime_0gList_cruntime_0n_bint32_5..eq, .Lfunc_end3-main.struct_4runtime_0gList_cruntime_0n_bint32_5..eq
	.cfi_endproc
                                        # -- End function
	.globl	main._632_7uintptr..eq          # -- Begin function main._632_7uintptr..eq
	.p2align	2
	.type	main._632_7uintptr..eq,@function
main._632_7uintptr..eq:                 # @main._632_7uintptr..eq
.Lfunc_begin4:
	.loc	3 1 0 is_stmt 1                 # <built-in>:1:0
	.cfi_startproc
# %bb.0:                                # %entry
	#DEBUG_VALUE: main._632_7uintptr..eq:key1 <- $x11
	#DEBUG_VALUE: main._632_7uintptr..eq:key2 <- $x12
	addi	sp, sp, -16
	.cfi_def_cfa_offset 16
.Ltmp16:
	.loc	3 0 0 is_stmt 0                 # <built-in>:0:0
	sd	ra, 8(sp)                       # 8-byte Folded Spill
	.cfi_offset ra, -8
.Ltmp17:
	#DEBUG_VALUE: main._632_7uintptr..eq:$ret3 <- 0
	.loc	3 1 1 prologue_end is_stmt 1    # <built-in>:1:1
	li	a3, 256
	call	runtime.memequal@plt
.Ltmp18:
	#DEBUG_VALUE: main._632_7uintptr..eq:$ret3 <- $x10
	ld	ra, 8(sp)                       # 8-byte Folded Reload
	addi	sp, sp, 16
	ret
.Ltmp19:
.Lfunc_end4:
	.size	main._632_7uintptr..eq, .Lfunc_end4-main._632_7uintptr..eq
	.cfi_endproc
                                        # -- End function
	.globl	main._6256_7uint64..eq          # -- Begin function main._6256_7uint64..eq
	.p2align	2
	.type	main._6256_7uint64..eq,@function
main._6256_7uint64..eq:                 # @main._6256_7uint64..eq
.Lfunc_begin5:
	.loc	3 1 0                           # <built-in>:1:0
	.cfi_startproc
# %bb.0:                                # %entry
	#DEBUG_VALUE: main._6256_7uint64..eq:key1 <- $x11
	#DEBUG_VALUE: main._6256_7uint64..eq:key2 <- $x12
	addi	sp, sp, -16
	.cfi_def_cfa_offset 16
.Ltmp20:
	.loc	3 0 0 is_stmt 0                 # <built-in>:0:0
	sd	ra, 8(sp)                       # 8-byte Folded Spill
	.cfi_offset ra, -8
.Ltmp21:
	#DEBUG_VALUE: main._6256_7uint64..eq:$ret4 <- 0
	lui	a0, 1
	addiw	a3, a0, -2048
	.loc	3 1 1 prologue_end is_stmt 1    # <built-in>:1:1
	call	runtime.memequal@plt
.Ltmp22:
	#DEBUG_VALUE: main._6256_7uint64..eq:$ret4 <- $x10
	ld	ra, 8(sp)                       # 8-byte Folded Reload
	addi	sp, sp, 16
	ret
.Ltmp23:
.Lfunc_end5:
	.size	main._6256_7uint64..eq, .Lfunc_end5-main._6256_7uint64..eq
	.cfi_endproc
                                        # -- End function
	.globl	main._661_7struct_4Size_buint32_cMallocs_buint64_cFrees_buint64_5..eq # -- Begin function main._661_7struct_4Size_buint32_cMallocs_buint64_cFrees_buint64_5..eq
	.p2align	2
	.type	main._661_7struct_4Size_buint32_cMallocs_buint64_cFrees_buint64_5..eq,@function
main._661_7struct_4Size_buint32_cMallocs_buint64_cFrees_buint64_5..eq: # @main._661_7struct_4Size_buint32_cMallocs_buint64_cFrees_buint64_5..eq
.Lfunc_begin6:
	.loc	3 1 0                           # <built-in>:1:0
	.cfi_startproc
# %bb.0:                                # %entry
	#DEBUG_VALUE: main._661_7struct_4Size_buint32_cMallocs_buint64_cFrees_buint64_5..eq:key1 <- $x11
	#DEBUG_VALUE: main._661_7struct_4Size_buint32_cMallocs_buint64_cFrees_buint64_5..eq:key2 <- $x12
	addi	sp, sp, -16
	.cfi_def_cfa_offset 16
.Ltmp24:
	.loc	3 0 0 is_stmt 0                 # <built-in>:0:0
	sd	ra, 8(sp)                       # 8-byte Folded Spill
	.cfi_offset ra, -8
.Ltmp25:
	#DEBUG_VALUE: main._661_7struct_4Size_buint32_cMallocs_buint64_cFrees_buint64_5..eq:$ret5 <- 0
	beqz	a1, .LBB6_8
.Ltmp26:
# %bb.1:                                # %entry.split
	#DEBUG_VALUE: main._661_7struct_4Size_buint32_cMallocs_buint64_cFrees_buint64_5..eq:$ret5 <- 0
	#DEBUG_VALUE: main._661_7struct_4Size_buint32_cMallocs_buint64_cFrees_buint64_5..eq:key2 <- $x12
	#DEBUG_VALUE: main._661_7struct_4Size_buint32_cMallocs_buint64_cFrees_buint64_5..eq:key1 <- $x11
	beqz	a2, .LBB6_8
.Ltmp27:
# %bb.2:                                # %then.19.preheader
	#DEBUG_VALUE: main._661_7struct_4Size_buint32_cMallocs_buint64_cFrees_buint64_5..eq:$ret5 <- 0
	#DEBUG_VALUE: main._661_7struct_4Size_buint32_cMallocs_buint64_cFrees_buint64_5..eq:key2 <- $x12
	#DEBUG_VALUE: main._661_7struct_4Size_buint32_cMallocs_buint64_cFrees_buint64_5..eq:key1 <- $x11
	li	a0, 0
	li	a3, 1464
.Ltmp28:
.LBB6_3:                                # %then.19
                                        # =>This Inner Loop Header: Depth=1
	#DEBUG_VALUE: main._661_7struct_4Size_buint32_cMallocs_buint64_cFrees_buint64_5..eq:$ret5 <- 0
	#DEBUG_VALUE: main._661_7struct_4Size_buint32_cMallocs_buint64_cFrees_buint64_5..eq:key2 <- $x12
	#DEBUG_VALUE: main._661_7struct_4Size_buint32_cMallocs_buint64_cFrees_buint64_5..eq:key1 <- $x11
	.loc	3 1 1 prologue_end is_stmt 1    # <built-in>:1:1
	add	a4, a1, a0
	ld	a5, 8(a4)
	lw	a6, 0(a4)
	add	a7, a2, a0
	lw	t0, 0(a7)
	ld	t1, 8(a7)
	ld	a4, 16(a4)
	ld	a7, 16(a7)
	xor	a6, a6, t0
	xor	a5, a5, t1
	or	a5, a6, a5
	xor	a4, a4, a7
	or	a4, a5, a4
	bnez	a4, .LBB6_6
.Ltmp29:
# %bb.4:                                # %label.0
                                        #   in Loop: Header=BB6_3 Depth=1
	#DEBUG_VALUE: main._661_7struct_4Size_buint32_cMallocs_buint64_cFrees_buint64_5..eq:$ret5 <- 0
	#DEBUG_VALUE: main._661_7struct_4Size_buint32_cMallocs_buint64_cFrees_buint64_5..eq:key2 <- $x12
	#DEBUG_VALUE: main._661_7struct_4Size_buint32_cMallocs_buint64_cFrees_buint64_5..eq:key1 <- $x11
	addi	a0, a0, 24
	bne	a0, a3, .LBB6_3
.Ltmp30:
# %bb.5:
	#DEBUG_VALUE: main._661_7struct_4Size_buint32_cMallocs_buint64_cFrees_buint64_5..eq:$ret5 <- 0
	#DEBUG_VALUE: main._661_7struct_4Size_buint32_cMallocs_buint64_cFrees_buint64_5..eq:key2 <- $x12
	#DEBUG_VALUE: main._661_7struct_4Size_buint32_cMallocs_buint64_cFrees_buint64_5..eq:key1 <- $x11
	.loc	3 0 1 is_stmt 0                 # <built-in>:0:1
	li	a0, 1
	j	.LBB6_7
.Ltmp31:
.LBB6_6:
	#DEBUG_VALUE: main._661_7struct_4Size_buint32_cMallocs_buint64_cFrees_buint64_5..eq:$ret5 <- 0
	#DEBUG_VALUE: main._661_7struct_4Size_buint32_cMallocs_buint64_cFrees_buint64_5..eq:key2 <- $x12
	#DEBUG_VALUE: main._661_7struct_4Size_buint32_cMallocs_buint64_cFrees_buint64_5..eq:key1 <- $x11
	li	a0, 0
.Ltmp32:
.LBB6_7:                                # %common.ret
	#DEBUG_VALUE: main._661_7struct_4Size_buint32_cMallocs_buint64_cFrees_buint64_5..eq:$ret5 <- 0
	#DEBUG_VALUE: main._661_7struct_4Size_buint32_cMallocs_buint64_cFrees_buint64_5..eq:key2 <- $x12
	#DEBUG_VALUE: main._661_7struct_4Size_buint32_cMallocs_buint64_cFrees_buint64_5..eq:key1 <- $x11
	.loc	3 1 1                           # <built-in>:1:1
	ld	ra, 8(sp)                       # 8-byte Folded Reload
	addi	sp, sp, 16
	ret
.Ltmp33:
.LBB6_8:                                # %then.15.split
	#DEBUG_VALUE: main._661_7struct_4Size_buint32_cMallocs_buint64_cFrees_buint64_5..eq:$ret5 <- 0
	#DEBUG_VALUE: main._661_7struct_4Size_buint32_cMallocs_buint64_cFrees_buint64_5..eq:key2 <- $x12
	#DEBUG_VALUE: main._661_7struct_4Size_buint32_cMallocs_buint64_cFrees_buint64_5..eq:key1 <- $x11
	call	runtime.panicmem@plt
.Ltmp34:
.Lfunc_end6:
	.size	main._661_7struct_4Size_buint32_cMallocs_buint64_cFrees_buint64_5..eq, .Lfunc_end6-main._661_7struct_4Size_buint32_cMallocs_buint64_cFrees_buint64_5..eq
	.cfi_endproc
                                        # -- End function
	.globl	main.struct_4Size_buint32_cMallocs_buint64_cFrees_buint64_5..eq # -- Begin function main.struct_4Size_buint32_cMallocs_buint64_cFrees_buint64_5..eq
	.p2align	2
	.type	main.struct_4Size_buint32_cMallocs_buint64_cFrees_buint64_5..eq,@function
main.struct_4Size_buint32_cMallocs_buint64_cFrees_buint64_5..eq: # @main.struct_4Size_buint32_cMallocs_buint64_cFrees_buint64_5..eq
.Lfunc_begin7:
	.loc	3 1 0 is_stmt 1                 # <built-in>:1:0
	.cfi_startproc
# %bb.0:                                # %entry
	#DEBUG_VALUE: main.struct_4Size_buint32_cMallocs_buint64_cFrees_buint64_5..eq:key1 <- $x11
	#DEBUG_VALUE: main.struct_4Size_buint32_cMallocs_buint64_cFrees_buint64_5..eq:key2 <- $x12
	addi	sp, sp, -16
	.cfi_def_cfa_offset 16
.Ltmp35:
	.loc	3 0 0 is_stmt 0                 # <built-in>:0:0
	sd	ra, 8(sp)                       # 8-byte Folded Spill
	.cfi_offset ra, -8
.Ltmp36:
	#DEBUG_VALUE: main.struct_4Size_buint32_cMallocs_buint64_cFrees_buint64_5..eq:$ret6 <- 0
	beqz	a1, .LBB7_7
.Ltmp37:
# %bb.1:                                # %else.20
	#DEBUG_VALUE: main.struct_4Size_buint32_cMallocs_buint64_cFrees_buint64_5..eq:$ret6 <- 0
	#DEBUG_VALUE: main.struct_4Size_buint32_cMallocs_buint64_cFrees_buint64_5..eq:key2 <- $x12
	#DEBUG_VALUE: main.struct_4Size_buint32_cMallocs_buint64_cFrees_buint64_5..eq:key1 <- $x11
	beqz	a2, .LBB7_7
.Ltmp38:
# %bb.2:                                # %else.21
	#DEBUG_VALUE: main.struct_4Size_buint32_cMallocs_buint64_cFrees_buint64_5..eq:$ret6 <- 0
	#DEBUG_VALUE: main.struct_4Size_buint32_cMallocs_buint64_cFrees_buint64_5..eq:key2 <- $x12
	#DEBUG_VALUE: main.struct_4Size_buint32_cMallocs_buint64_cFrees_buint64_5..eq:key1 <- $x11
	.loc	3 1 1 prologue_end is_stmt 1    # <built-in>:1:1
	lw	a0, 0(a1)
	lw	a3, 0(a2)
	bne	a0, a3, .LBB7_5
.Ltmp39:
# %bb.3:                                # %else.24
	#DEBUG_VALUE: main.struct_4Size_buint32_cMallocs_buint64_cFrees_buint64_5..eq:$ret6 <- 0
	#DEBUG_VALUE: main.struct_4Size_buint32_cMallocs_buint64_cFrees_buint64_5..eq:key2 <- $x12
	#DEBUG_VALUE: main.struct_4Size_buint32_cMallocs_buint64_cFrees_buint64_5..eq:key1 <- $x11
	ld	a0, 8(a1)
	ld	a3, 8(a2)
	bne	a0, a3, .LBB7_5
.Ltmp40:
# %bb.4:                                # %else.27
	#DEBUG_VALUE: main.struct_4Size_buint32_cMallocs_buint64_cFrees_buint64_5..eq:$ret6 <- 0
	#DEBUG_VALUE: main.struct_4Size_buint32_cMallocs_buint64_cFrees_buint64_5..eq:key2 <- $x12
	#DEBUG_VALUE: main.struct_4Size_buint32_cMallocs_buint64_cFrees_buint64_5..eq:key1 <- $x11
	ld	a0, 16(a1)
	ld	a1, 16(a2)
.Ltmp41:
	xor	a0, a0, a1
	seqz	a0, a0
	j	.LBB7_6
.Ltmp42:
.LBB7_5:
	#DEBUG_VALUE: main.struct_4Size_buint32_cMallocs_buint64_cFrees_buint64_5..eq:$ret6 <- 0
	#DEBUG_VALUE: main.struct_4Size_buint32_cMallocs_buint64_cFrees_buint64_5..eq:key2 <- $x12
	#DEBUG_VALUE: main.struct_4Size_buint32_cMallocs_buint64_cFrees_buint64_5..eq:key1 <- $x11
	.loc	3 0 1 is_stmt 0                 # <built-in>:0:1
	li	a0, 0
.Ltmp43:
.LBB7_6:                                # %common.ret
	#DEBUG_VALUE: main.struct_4Size_buint32_cMallocs_buint64_cFrees_buint64_5..eq:$ret6 <- 0
	#DEBUG_VALUE: main.struct_4Size_buint32_cMallocs_buint64_cFrees_buint64_5..eq:key2 <- $x12
	.loc	3 1 1                           # <built-in>:1:1
	ld	ra, 8(sp)                       # 8-byte Folded Reload
	addi	sp, sp, 16
	ret
.Ltmp44:
.LBB7_7:                                # %then.20
	#DEBUG_VALUE: main.struct_4Size_buint32_cMallocs_buint64_cFrees_buint64_5..eq:$ret6 <- 0
	#DEBUG_VALUE: main.struct_4Size_buint32_cMallocs_buint64_cFrees_buint64_5..eq:key2 <- $x12
	#DEBUG_VALUE: main.struct_4Size_buint32_cMallocs_buint64_cFrees_buint64_5..eq:key1 <- $x11
	call	runtime.panicmem@plt
.Ltmp45:
.Lfunc_end7:
	.size	main.struct_4Size_buint32_cMallocs_buint64_cFrees_buint64_5..eq, .Lfunc_end7-main.struct_4Size_buint32_cMallocs_buint64_cFrees_buint64_5..eq
	.cfi_endproc
                                        # -- End function
	.globl	main._6122_7uintptr..eq         # -- Begin function main._6122_7uintptr..eq
	.p2align	2
	.type	main._6122_7uintptr..eq,@function
main._6122_7uintptr..eq:                # @main._6122_7uintptr..eq
.Lfunc_begin8:
	.loc	3 1 0 is_stmt 1                 # <built-in>:1:0
	.cfi_startproc
# %bb.0:                                # %entry
	#DEBUG_VALUE: main._6122_7uintptr..eq:key1 <- $x11
	#DEBUG_VALUE: main._6122_7uintptr..eq:key2 <- $x12
	addi	sp, sp, -16
	.cfi_def_cfa_offset 16
.Ltmp46:
	.loc	3 0 0 is_stmt 0                 # <built-in>:0:0
	sd	ra, 8(sp)                       # 8-byte Folded Spill
	.cfi_offset ra, -8
.Ltmp47:
	#DEBUG_VALUE: main._6122_7uintptr..eq:$ret7 <- 0
	.loc	3 1 1 prologue_end is_stmt 1    # <built-in>:1:1
	li	a3, 976
	call	runtime.memequal@plt
.Ltmp48:
	#DEBUG_VALUE: main._6122_7uintptr..eq:$ret7 <- $x10
	ld	ra, 8(sp)                       # 8-byte Folded Reload
	addi	sp, sp, 16
	ret
.Ltmp49:
.Lfunc_end8:
	.size	main._6122_7uintptr..eq, .Lfunc_end8-main._6122_7uintptr..eq
	.cfi_endproc
                                        # -- End function
	.globl	main._68_7uint64..eq            # -- Begin function main._68_7uint64..eq
	.p2align	2
	.type	main._68_7uint64..eq,@function
main._68_7uint64..eq:                   # @main._68_7uint64..eq
.Lfunc_begin9:
	.loc	3 1 0                           # <built-in>:1:0
	.cfi_startproc
# %bb.0:                                # %entry
	#DEBUG_VALUE: main._68_7uint64..eq:key1 <- $x11
	#DEBUG_VALUE: main._68_7uint64..eq:key2 <- $x12
	addi	sp, sp, -16
	.cfi_def_cfa_offset 16
.Ltmp50:
	.loc	3 0 0 is_stmt 0                 # <built-in>:0:0
	sd	ra, 8(sp)                       # 8-byte Folded Spill
	.cfi_offset ra, -8
.Ltmp51:
	#DEBUG_VALUE: main._68_7uint64..eq:$ret8 <- 0
	.loc	3 1 1 prologue_end is_stmt 1    # <built-in>:1:1
	li	a3, 64
	call	runtime.memequal@plt
.Ltmp52:
	#DEBUG_VALUE: main._68_7uint64..eq:$ret8 <- $x10
	ld	ra, 8(sp)                       # 8-byte Folded Reload
	addi	sp, sp, 16
	ret
.Ltmp53:
.Lfunc_end9:
	.size	main._68_7uint64..eq, .Lfunc_end9-main._68_7uint64..eq
	.cfi_endproc
                                        # -- End function
	.globl	main._6128_7uint8..eq           # -- Begin function main._6128_7uint8..eq
	.p2align	2
	.type	main._6128_7uint8..eq,@function
main._6128_7uint8..eq:                  # @main._6128_7uint8..eq
.Lfunc_begin10:
	.loc	3 1 0                           # <built-in>:1:0
	.cfi_startproc
# %bb.0:                                # %entry
	#DEBUG_VALUE: main._6128_7uint8..eq:key1 <- $x11
	#DEBUG_VALUE: main._6128_7uint8..eq:key2 <- $x12
	addi	sp, sp, -16
	.cfi_def_cfa_offset 16
.Ltmp54:
	.loc	3 0 0 is_stmt 0                 # <built-in>:0:0
	sd	ra, 8(sp)                       # 8-byte Folded Spill
	.cfi_offset ra, -8
.Ltmp55:
	#DEBUG_VALUE: main._6128_7uint8..eq:$ret9 <- 0
	.loc	3 1 1 prologue_end is_stmt 1    # <built-in>:1:1
	li	a3, 128
	call	runtime.memequal@plt
.Ltmp56:
	#DEBUG_VALUE: main._6128_7uint8..eq:$ret9 <- $x10
	ld	ra, 8(sp)                       # 8-byte Folded Reload
	addi	sp, sp, 16
	ret
.Ltmp57:
.Lfunc_end10:
	.size	main._6128_7uint8..eq, .Lfunc_end10-main._6128_7uint8..eq
	.cfi_endproc
                                        # -- End function
	.globl	main._64096_7uint8..eq          # -- Begin function main._64096_7uint8..eq
	.p2align	2
	.type	main._64096_7uint8..eq,@function
main._64096_7uint8..eq:                 # @main._64096_7uint8..eq
.Lfunc_begin11:
	.loc	3 1 0                           # <built-in>:1:0
	.cfi_startproc
# %bb.0:                                # %entry
	#DEBUG_VALUE: main._64096_7uint8..eq:key1 <- $x11
	#DEBUG_VALUE: main._64096_7uint8..eq:key2 <- $x12
	addi	sp, sp, -16
	.cfi_def_cfa_offset 16
.Ltmp58:
	.loc	3 0 0 is_stmt 0                 # <built-in>:0:0
	sd	ra, 8(sp)                       # 8-byte Folded Spill
	.cfi_offset ra, -8
.Ltmp59:
	#DEBUG_VALUE: main._64096_7uint8..eq:$ret10 <- 0
	.loc	3 1 1 prologue_end is_stmt 1    # <built-in>:1:1
	lui	a3, 1
	call	runtime.memequal@plt
.Ltmp60:
	#DEBUG_VALUE: main._64096_7uint8..eq:$ret10 <- $x10
	ld	ra, 8(sp)                       # 8-byte Folded Reload
	addi	sp, sp, 16
	ret
.Ltmp61:
.Lfunc_end11:
	.size	main._64096_7uint8..eq, .Lfunc_end11-main._64096_7uint8..eq
	.cfi_endproc
                                        # -- End function
	.globl	main._668_7uint16..eq           # -- Begin function main._668_7uint16..eq
	.p2align	2
	.type	main._668_7uint16..eq,@function
main._668_7uint16..eq:                  # @main._668_7uint16..eq
.Lfunc_begin12:
	.loc	3 1 0                           # <built-in>:1:0
	.cfi_startproc
# %bb.0:                                # %entry
	#DEBUG_VALUE: main._668_7uint16..eq:key1 <- $x11
	#DEBUG_VALUE: main._668_7uint16..eq:key2 <- $x12
	addi	sp, sp, -16
	.cfi_def_cfa_offset 16
.Ltmp62:
	.loc	3 0 0 is_stmt 0                 # <built-in>:0:0
	sd	ra, 8(sp)                       # 8-byte Folded Spill
	.cfi_offset ra, -8
.Ltmp63:
	#DEBUG_VALUE: main._668_7uint16..eq:$ret11 <- 0
	.loc	3 1 1 prologue_end is_stmt 1    # <built-in>:1:1
	li	a3, 136
	call	runtime.memequal@plt
.Ltmp64:
	#DEBUG_VALUE: main._668_7uint16..eq:$ret11 <- $x10
	ld	ra, 8(sp)                       # 8-byte Folded Reload
	addi	sp, sp, 16
	ret
.Ltmp65:
.Lfunc_end12:
	.size	main._668_7uint16..eq, .Lfunc_end12-main._668_7uint16..eq
	.cfi_endproc
                                        # -- End function
	.globl	main._633_7float64..eq          # -- Begin function main._633_7float64..eq
	.p2align	2
	.type	main._633_7float64..eq,@function
main._633_7float64..eq:                 # @main._633_7float64..eq
.Lfunc_begin13:
	.loc	3 1 0                           # <built-in>:1:0
	.cfi_startproc
# %bb.0:                                # %entry
	#DEBUG_VALUE: main._633_7float64..eq:key1 <- $x11
	#DEBUG_VALUE: main._633_7float64..eq:key2 <- $x12
	addi	sp, sp, -64
	.cfi_def_cfa_offset 64
.Ltmp66:
	.loc	3 0 0 is_stmt 0                 # <built-in>:0:0
	sd	ra, 56(sp)                      # 8-byte Folded Spill
	sd	s0, 48(sp)                      # 8-byte Folded Spill
	sd	s1, 40(sp)                      # 8-byte Folded Spill
	sd	s2, 32(sp)                      # 8-byte Folded Spill
	sd	s3, 24(sp)                      # 8-byte Folded Spill
	sd	s4, 16(sp)                      # 8-byte Folded Spill
	sd	s5, 8(sp)                       # 8-byte Folded Spill
	.cfi_offset ra, -8
	.cfi_offset s0, -16
	.cfi_offset s1, -24
	.cfi_offset s2, -32
	.cfi_offset s3, -40
	.cfi_offset s4, -48
	.cfi_offset s5, -56
.Ltmp67:
	#DEBUG_VALUE: main._633_7float64..eq:$ret12 <- 0
	beqz	a1, .LBB13_10
.Ltmp68:
# %bb.1:                                # %entry.split
	#DEBUG_VALUE: main._633_7float64..eq:$ret12 <- 0
	#DEBUG_VALUE: main._633_7float64..eq:key2 <- $x12
	#DEBUG_VALUE: main._633_7float64..eq:key1 <- $x11
	beqz	a2, .LBB13_10
.Ltmp69:
# %bb.2:                                # %then.34.preheader
	#DEBUG_VALUE: main._633_7float64..eq:$ret12 <- 0
	#DEBUG_VALUE: main._633_7float64..eq:key2 <- $x12
	#DEBUG_VALUE: main._633_7float64..eq:key1 <- $x11
	li	s0, 0
	addi	s1, a1, 8
	addi	s2, a2, 8
	li	s3, 264
.Ltmp70:
.LBB13_3:                               # %then.34
                                        # =>This Inner Loop Header: Depth=1
	#DEBUG_VALUE: main._633_7float64..eq:$ret12 <- 0
	.loc	3 1 1 prologue_end is_stmt 1    # <built-in>:1:1
	add	s4, s1, s0
	ld	a0, -8(s4)
	add	s5, s2, s0
	ld	a1, -8(s5)
	call	__nedf2@plt
	bnez	a0, .LBB13_8
.Ltmp71:
# %bb.4:                                # %label.0
                                        #   in Loop: Header=BB13_3 Depth=1
	#DEBUG_VALUE: main._633_7float64..eq:$ret12 <- 0
	ld	a0, 0(s4)
	ld	a1, 0(s5)
	call	__nedf2@plt
	bnez	a0, .LBB13_8
.Ltmp72:
# %bb.5:                                # %label.0.1
                                        #   in Loop: Header=BB13_3 Depth=1
	#DEBUG_VALUE: main._633_7float64..eq:$ret12 <- 0
	ld	a0, 8(s4)
	ld	a1, 8(s5)
	call	__nedf2@plt
	bnez	a0, .LBB13_8
.Ltmp73:
# %bb.6:                                # %label.0.2
                                        #   in Loop: Header=BB13_3 Depth=1
	#DEBUG_VALUE: main._633_7float64..eq:$ret12 <- 0
	addi	s0, s0, 24
	bne	s0, s3, .LBB13_3
.Ltmp74:
# %bb.7:
	#DEBUG_VALUE: main._633_7float64..eq:$ret12 <- 0
	.loc	3 0 1 is_stmt 0                 # <built-in>:0:1
	li	a0, 1
	j	.LBB13_9
.Ltmp75:
.LBB13_8:
	#DEBUG_VALUE: main._633_7float64..eq:$ret12 <- 0
	li	a0, 0
.Ltmp76:
.LBB13_9:                               # %common.ret
	#DEBUG_VALUE: main._633_7float64..eq:$ret12 <- 0
	.loc	3 1 1                           # <built-in>:1:1
	ld	ra, 56(sp)                      # 8-byte Folded Reload
	ld	s0, 48(sp)                      # 8-byte Folded Reload
	ld	s1, 40(sp)                      # 8-byte Folded Reload
	ld	s2, 32(sp)                      # 8-byte Folded Reload
	ld	s3, 24(sp)                      # 8-byte Folded Reload
	ld	s4, 16(sp)                      # 8-byte Folded Reload
	ld	s5, 8(sp)                       # 8-byte Folded Reload
	addi	sp, sp, 64
	ret
.Ltmp77:
.LBB13_10:                              # %then.32.split
	#DEBUG_VALUE: main._633_7float64..eq:$ret12 <- 0
	#DEBUG_VALUE: main._633_7float64..eq:key2 <- $x12
	#DEBUG_VALUE: main._633_7float64..eq:key1 <- $x11
	call	runtime.panicmem@plt
.Ltmp78:
.Lfunc_end13:
	.size	main._633_7float64..eq, .Lfunc_end13-main._633_7float64..eq
	.cfi_endproc
                                        # -- End function
	.globl	main._665_7uint32..eq           # -- Begin function main._665_7uint32..eq
	.p2align	2
	.type	main._665_7uint32..eq,@function
main._665_7uint32..eq:                  # @main._665_7uint32..eq
.Lfunc_begin14:
	.loc	3 1 0 is_stmt 1                 # <built-in>:1:0
	.cfi_startproc
# %bb.0:                                # %entry
	#DEBUG_VALUE: main._665_7uint32..eq:key1 <- $x11
	#DEBUG_VALUE: main._665_7uint32..eq:key2 <- $x12
	addi	sp, sp, -16
	.cfi_def_cfa_offset 16
.Ltmp79:
	.loc	3 0 0 is_stmt 0                 # <built-in>:0:0
	sd	ra, 8(sp)                       # 8-byte Folded Spill
	.cfi_offset ra, -8
.Ltmp80:
	#DEBUG_VALUE: main._665_7uint32..eq:$ret13 <- 0
	.loc	3 1 1 prologue_end is_stmt 1    # <built-in>:1:1
	li	a3, 260
	call	runtime.memequal@plt
.Ltmp81:
	#DEBUG_VALUE: main._665_7uint32..eq:$ret13 <- $x10
	ld	ra, 8(sp)                       # 8-byte Folded Reload
	addi	sp, sp, 16
	ret
.Ltmp82:
.Lfunc_end14:
	.size	main._665_7uint32..eq, .Lfunc_end14-main._665_7uint32..eq
	.cfi_endproc
                                        # -- End function
	.globl	main._64_7uintptr..eq           # -- Begin function main._64_7uintptr..eq
	.p2align	2
	.type	main._64_7uintptr..eq,@function
main._64_7uintptr..eq:                  # @main._64_7uintptr..eq
.Lfunc_begin15:
	.loc	3 1 0                           # <built-in>:1:0
	.cfi_startproc
# %bb.0:                                # %entry
	#DEBUG_VALUE: main._64_7uintptr..eq:key1 <- $x11
	#DEBUG_VALUE: main._64_7uintptr..eq:key2 <- $x12
	addi	sp, sp, -16
	.cfi_def_cfa_offset 16
.Ltmp83:
	.loc	3 0 0 is_stmt 0                 # <built-in>:0:0
	sd	ra, 8(sp)                       # 8-byte Folded Spill
	.cfi_offset ra, -8
.Ltmp84:
	#DEBUG_VALUE: main._64_7uintptr..eq:$ret14 <- 0
	.loc	3 1 1 prologue_end is_stmt 1    # <built-in>:1:1
	li	a3, 32
	call	runtime.memequal@plt
.Ltmp85:
	#DEBUG_VALUE: main._64_7uintptr..eq:$ret14 <- $x10
	ld	ra, 8(sp)                       # 8-byte Folded Reload
	addi	sp, sp, 16
	ret
.Ltmp86:
.Lfunc_end15:
	.size	main._64_7uintptr..eq, .Lfunc_end15-main._64_7uintptr..eq
	.cfi_endproc
                                        # -- End function
	.globl	main._65_7uint..eq              # -- Begin function main._65_7uint..eq
	.p2align	2
	.type	main._65_7uint..eq,@function
main._65_7uint..eq:                     # @main._65_7uint..eq
.Lfunc_begin16:
	.loc	3 1 0                           # <built-in>:1:0
	.cfi_startproc
# %bb.0:                                # %entry
	#DEBUG_VALUE: main._65_7uint..eq:key1 <- $x11
	#DEBUG_VALUE: main._65_7uint..eq:key2 <- $x12
	addi	sp, sp, -16
	.cfi_def_cfa_offset 16
.Ltmp87:
	.loc	3 0 0 is_stmt 0                 # <built-in>:0:0
	sd	ra, 8(sp)                       # 8-byte Folded Spill
	.cfi_offset ra, -8
.Ltmp88:
	#DEBUG_VALUE: main._65_7uint..eq:$ret15 <- 0
	.loc	3 1 1 prologue_end is_stmt 1    # <built-in>:1:1
	li	a3, 40
	call	runtime.memequal@plt
.Ltmp89:
	#DEBUG_VALUE: main._65_7uint..eq:$ret15 <- $x10
	ld	ra, 8(sp)                       # 8-byte Folded Reload
	addi	sp, sp, 16
	ret
.Ltmp90:
.Lfunc_end16:
	.size	main._65_7uint..eq, .Lfunc_end16-main._65_7uint..eq
	.cfi_endproc
                                        # -- End function
	.globl	main._6512_7uint8..eq           # -- Begin function main._6512_7uint8..eq
	.p2align	2
	.type	main._6512_7uint8..eq,@function
main._6512_7uint8..eq:                  # @main._6512_7uint8..eq
.Lfunc_begin17:
	.loc	3 1 0                           # <built-in>:1:0
	.cfi_startproc
# %bb.0:                                # %entry
	#DEBUG_VALUE: main._6512_7uint8..eq:key1 <- $x11
	#DEBUG_VALUE: main._6512_7uint8..eq:key2 <- $x12
	addi	sp, sp, -16
	.cfi_def_cfa_offset 16
.Ltmp91:
	.loc	3 0 0 is_stmt 0                 # <built-in>:0:0
	sd	ra, 8(sp)                       # 8-byte Folded Spill
	.cfi_offset ra, -8
.Ltmp92:
	#DEBUG_VALUE: main._6512_7uint8..eq:$ret16 <- 0
	.loc	3 1 1 prologue_end is_stmt 1    # <built-in>:1:1
	li	a3, 512
	call	runtime.memequal@plt
.Ltmp93:
	#DEBUG_VALUE: main._6512_7uint8..eq:$ret16 <- $x10
	ld	ra, 8(sp)                       # 8-byte Folded Reload
	addi	sp, sp, 16
	ret
.Ltmp94:
.Lfunc_end17:
	.size	main._6512_7uint8..eq, .Lfunc_end17-main._6512_7uint8..eq
	.cfi_endproc
                                        # -- End function
	.globl	main._6249_7uint8..eq           # -- Begin function main._6249_7uint8..eq
	.p2align	2
	.type	main._6249_7uint8..eq,@function
main._6249_7uint8..eq:                  # @main._6249_7uint8..eq
.Lfunc_begin18:
	.loc	3 1 0                           # <built-in>:1:0
	.cfi_startproc
# %bb.0:                                # %entry
	#DEBUG_VALUE: main._6249_7uint8..eq:key1 <- $x11
	#DEBUG_VALUE: main._6249_7uint8..eq:key2 <- $x12
	addi	sp, sp, -16
	.cfi_def_cfa_offset 16
.Ltmp95:
	.loc	3 0 0 is_stmt 0                 # <built-in>:0:0
	sd	ra, 8(sp)                       # 8-byte Folded Spill
	.cfi_offset ra, -8
.Ltmp96:
	#DEBUG_VALUE: main._6249_7uint8..eq:$ret17 <- 0
	.loc	3 1 1 prologue_end is_stmt 1    # <built-in>:1:1
	li	a3, 249
	call	runtime.memequal@plt
.Ltmp97:
	#DEBUG_VALUE: main._6249_7uint8..eq:$ret17 <- $x10
	ld	ra, 8(sp)                       # 8-byte Folded Reload
	addi	sp, sp, 16
	ret
.Ltmp98:
.Lfunc_end18:
	.size	main._6249_7uint8..eq, .Lfunc_end18-main._6249_7uint8..eq
	.cfi_endproc
                                        # -- End function
	.globl	main._6129_7uint8..eq           # -- Begin function main._6129_7uint8..eq
	.p2align	2
	.type	main._6129_7uint8..eq,@function
main._6129_7uint8..eq:                  # @main._6129_7uint8..eq
.Lfunc_begin19:
	.loc	3 1 0                           # <built-in>:1:0
	.cfi_startproc
# %bb.0:                                # %entry
	#DEBUG_VALUE: main._6129_7uint8..eq:key1 <- $x11
	#DEBUG_VALUE: main._6129_7uint8..eq:key2 <- $x12
	addi	sp, sp, -16
	.cfi_def_cfa_offset 16
.Ltmp99:
	.loc	3 0 0 is_stmt 0                 # <built-in>:0:0
	sd	ra, 8(sp)                       # 8-byte Folded Spill
	.cfi_offset ra, -8
.Ltmp100:
	#DEBUG_VALUE: main._6129_7uint8..eq:$ret18 <- 0
	.loc	3 1 1 prologue_end is_stmt 1    # <built-in>:1:1
	li	a3, 129
	call	runtime.memequal@plt
.Ltmp101:
	#DEBUG_VALUE: main._6129_7uint8..eq:$ret18 <- $x10
	ld	ra, 8(sp)                       # 8-byte Folded Reload
	addi	sp, sp, 16
	ret
.Ltmp102:
.Lfunc_end19:
	.size	main._6129_7uint8..eq, .Lfunc_end19-main._6129_7uint8..eq
	.cfi_endproc
                                        # -- End function
	.globl	main._632_7uint8..eq            # -- Begin function main._632_7uint8..eq
	.p2align	2
	.type	main._632_7uint8..eq,@function
main._632_7uint8..eq:                   # @main._632_7uint8..eq
.Lfunc_begin20:
	.loc	3 1 0                           # <built-in>:1:0
	.cfi_startproc
# %bb.0:                                # %entry
	#DEBUG_VALUE: main._632_7uint8..eq:key1 <- $x11
	#DEBUG_VALUE: main._632_7uint8..eq:key2 <- $x12
	addi	sp, sp, -16
	.cfi_def_cfa_offset 16
.Ltmp103:
	.loc	3 0 0 is_stmt 0                 # <built-in>:0:0
	sd	ra, 8(sp)                       # 8-byte Folded Spill
	.cfi_offset ra, -8
.Ltmp104:
	#DEBUG_VALUE: main._632_7uint8..eq:$ret19 <- 0
	.loc	3 1 1 prologue_end is_stmt 1    # <built-in>:1:1
	li	a3, 32
	call	runtime.memequal@plt
.Ltmp105:
	#DEBUG_VALUE: main._632_7uint8..eq:$ret19 <- $x10
	ld	ra, 8(sp)                       # 8-byte Folded Reload
	addi	sp, sp, 16
	ret
.Ltmp106:
.Lfunc_end20:
	.size	main._632_7uint8..eq, .Lfunc_end20-main._632_7uint8..eq
	.cfi_endproc
                                        # -- End function
	.globl	main._627_7string..eq           # -- Begin function main._627_7string..eq
	.p2align	2
	.type	main._627_7string..eq,@function
main._627_7string..eq:                  # @main._627_7string..eq
.Lfunc_begin21:
	.loc	3 1 0                           # <built-in>:1:0
	.cfi_startproc
# %bb.0:                                # %entry
	#DEBUG_VALUE: main._627_7string..eq:key1 <- $x11
	#DEBUG_VALUE: main._627_7string..eq:key2 <- $x12
	#DEBUG_VALUE: main._627_7string..eq:key2 <- $x12
	#DEBUG_VALUE: main._627_7string..eq:key1 <- $x11
	addi	sp, sp, -48
	.cfi_def_cfa_offset 48
.Ltmp107:
	.loc	3 0 0 is_stmt 0                 # <built-in>:0:0
	sd	ra, 40(sp)                      # 8-byte Folded Spill
	sd	s0, 32(sp)                      # 8-byte Folded Spill
	sd	s1, 24(sp)                      # 8-byte Folded Spill
	sd	s2, 16(sp)                      # 8-byte Folded Spill
	sd	s3, 8(sp)                       # 8-byte Folded Spill
	.cfi_offset ra, -8
	.cfi_offset s0, -16
	.cfi_offset s1, -24
	.cfi_offset s2, -32
	.cfi_offset s3, -40
.Ltmp108:
	#DEBUG_VALUE: main._627_7string..eq:$ret20 <- 0
	beqz	a1, .LBB21_10
.Ltmp109:
# %bb.1:                                # %entry.split
	#DEBUG_VALUE: main._627_7string..eq:$ret20 <- 0
	#DEBUG_VALUE: main._627_7string..eq:key2 <- $x12
	#DEBUG_VALUE: main._627_7string..eq:key1 <- $x11
	mv	s0, a2
.Ltmp110:
	#DEBUG_VALUE: main._627_7string..eq:key2 <- $x8
	#DEBUG_VALUE: main._627_7string..eq:key1 <- $x11
	beqz	a2, .LBB21_10
.Ltmp111:
# %bb.2:                                # %then.42.preheader
	#DEBUG_VALUE: main._627_7string..eq:key2 <- $x8
	#DEBUG_VALUE: main._627_7string..eq:$ret20 <- 0
	#DEBUG_VALUE: main._627_7string..eq:key1 <- $x11
	mv	s1, a1
.Ltmp112:
	#DEBUG_VALUE: main._627_7string..eq:key1 <- $x9
	li	s2, 0
	li	s3, 432
	j	.LBB21_4
.Ltmp113:
.LBB21_3:                               # %else.41
                                        #   in Loop: Header=BB21_4 Depth=1
	#DEBUG_VALUE: main._627_7string..eq:key1 <- $x9
	#DEBUG_VALUE: main._627_7string..eq:key2 <- $x8
	#DEBUG_VALUE: main._627_7string..eq:$ret20 <- 0
	.loc	3 1 1 prologue_end is_stmt 1    # <built-in>:1:1
	addi	s2, s2, 16
	beq	s2, s3, .LBB21_8
.Ltmp114:
.LBB21_4:                               # %then.42
                                        # =>This Inner Loop Header: Depth=1
	#DEBUG_VALUE: main._627_7string..eq:key1 <- $x9
	#DEBUG_VALUE: main._627_7string..eq:key2 <- $x8
	#DEBUG_VALUE: main._627_7string..eq:$ret20 <- 0
	.loc	3 0 1 is_stmt 0                 # <built-in>:0:1
	add	a0, s1, s2
	ld	a2, 8(a0)
	add	a1, s0, s2
	ld	a3, 8(a1)
	bne	a2, a3, .LBB21_7
.Ltmp115:
# %bb.5:                                # %then.39
                                        #   in Loop: Header=BB21_4 Depth=1
	#DEBUG_VALUE: main._627_7string..eq:key1 <- $x9
	#DEBUG_VALUE: main._627_7string..eq:key2 <- $x8
	#DEBUG_VALUE: main._627_7string..eq:$ret20 <- 0
	ld	a0, 0(a0)
	ld	a1, 0(a1)
	beq	a0, a1, .LBB21_3
.Ltmp116:
# %bb.6:                                # %fallthrough.39
                                        #   in Loop: Header=BB21_4 Depth=1
	#DEBUG_VALUE: main._627_7string..eq:key1 <- $x9
	#DEBUG_VALUE: main._627_7string..eq:key2 <- $x8
	#DEBUG_VALUE: main._627_7string..eq:$ret20 <- 0
	.loc	3 1 1                           # <built-in>:1:1
	call	memcmp@plt
	sext.w	a0, a0
	beqz	a0, .LBB21_3
.Ltmp117:
.LBB21_7:
	#DEBUG_VALUE: main._627_7string..eq:key1 <- $x9
	#DEBUG_VALUE: main._627_7string..eq:key2 <- $x8
	#DEBUG_VALUE: main._627_7string..eq:$ret20 <- 0
	.loc	3 0 1                           # <built-in>:0:1
	li	a0, 0
	j	.LBB21_9
.Ltmp118:
.LBB21_8:
	#DEBUG_VALUE: main._627_7string..eq:key1 <- $x9
	#DEBUG_VALUE: main._627_7string..eq:key2 <- $x8
	#DEBUG_VALUE: main._627_7string..eq:$ret20 <- 0
	li	a0, 1
.Ltmp119:
.LBB21_9:                               # %common.ret
	#DEBUG_VALUE: main._627_7string..eq:key1 <- $x9
	#DEBUG_VALUE: main._627_7string..eq:key2 <- $x8
	#DEBUG_VALUE: main._627_7string..eq:$ret20 <- 0
	.loc	3 1 1                           # <built-in>:1:1
	ld	ra, 40(sp)                      # 8-byte Folded Reload
	ld	s0, 32(sp)                      # 8-byte Folded Reload
.Ltmp120:
	ld	s1, 24(sp)                      # 8-byte Folded Reload
.Ltmp121:
	ld	s2, 16(sp)                      # 8-byte Folded Reload
	ld	s3, 8(sp)                       # 8-byte Folded Reload
	addi	sp, sp, 48
	ret
.Ltmp122:
.LBB21_10:                              # %then.38.split
	#DEBUG_VALUE: main._627_7string..eq:$ret20 <- 0
	#DEBUG_VALUE: main._627_7string..eq:key1 <- $x11
	call	runtime.panicmem@plt
.Ltmp123:
.Lfunc_end21:
	.size	main._627_7string..eq, .Lfunc_end21-main._627_7string..eq
	.cfi_endproc
                                        # -- End function
	.globl	main._61024_7uint8..eq          # -- Begin function main._61024_7uint8..eq
	.p2align	2
	.type	main._61024_7uint8..eq,@function
main._61024_7uint8..eq:                 # @main._61024_7uint8..eq
.Lfunc_begin22:
	.loc	3 1 0 is_stmt 1                 # <built-in>:1:0
	.cfi_startproc
# %bb.0:                                # %entry
	#DEBUG_VALUE: main._61024_7uint8..eq:key1 <- $x11
	#DEBUG_VALUE: main._61024_7uint8..eq:key2 <- $x12
	addi	sp, sp, -16
	.cfi_def_cfa_offset 16
.Ltmp124:
	.loc	3 0 0 is_stmt 0                 # <built-in>:0:0
	sd	ra, 8(sp)                       # 8-byte Folded Spill
	.cfi_offset ra, -8
.Ltmp125:
	#DEBUG_VALUE: main._61024_7uint8..eq:$ret21 <- 0
	.loc	3 1 1 prologue_end is_stmt 1    # <built-in>:1:1
	li	a3, 1024
	call	runtime.memequal@plt
.Ltmp126:
	#DEBUG_VALUE: main._61024_7uint8..eq:$ret21 <- $x10
	ld	ra, 8(sp)                       # 8-byte Folded Reload
	addi	sp, sp, 16
	ret
.Ltmp127:
.Lfunc_end22:
	.size	main._61024_7uint8..eq, .Lfunc_end22-main._61024_7uint8..eq
	.cfi_endproc
                                        # -- End function
	.globl	main._62_7int32..eq             # -- Begin function main._62_7int32..eq
	.p2align	2
	.type	main._62_7int32..eq,@function
main._62_7int32..eq:                    # @main._62_7int32..eq
.Lfunc_begin23:
	.loc	3 1 0                           # <built-in>:1:0
	.cfi_startproc
# %bb.0:                                # %entry
	#DEBUG_VALUE: main._62_7int32..eq:key1 <- $x11
	#DEBUG_VALUE: main._62_7int32..eq:key2 <- $x12
	addi	sp, sp, -16
	.cfi_def_cfa_offset 16
.Ltmp128:
	.loc	3 0 0 is_stmt 0                 # <built-in>:0:0
	sd	ra, 8(sp)                       # 8-byte Folded Spill
	.cfi_offset ra, -8
.Ltmp129:
	#DEBUG_VALUE: main._62_7int32..eq:$ret22 <- 0
	.loc	3 1 1 prologue_end is_stmt 1    # <built-in>:1:1
	li	a3, 8
	call	runtime.memequal@plt
.Ltmp130:
	#DEBUG_VALUE: main._62_7int32..eq:$ret22 <- $x10
	ld	ra, 8(sp)                       # 8-byte Folded Reload
	addi	sp, sp, 16
	ret
.Ltmp131:
.Lfunc_end23:
	.size	main._62_7int32..eq, .Lfunc_end23-main._62_7int32..eq
	.cfi_endproc
                                        # -- End function
	.globl	main._664_7uint8..eq            # -- Begin function main._664_7uint8..eq
	.p2align	2
	.type	main._664_7uint8..eq,@function
main._664_7uint8..eq:                   # @main._664_7uint8..eq
.Lfunc_begin24:
	.loc	3 1 0                           # <built-in>:1:0
	.cfi_startproc
# %bb.0:                                # %entry
	#DEBUG_VALUE: main._664_7uint8..eq:key1 <- $x11
	#DEBUG_VALUE: main._664_7uint8..eq:key2 <- $x12
	addi	sp, sp, -16
	.cfi_def_cfa_offset 16
.Ltmp132:
	.loc	3 0 0 is_stmt 0                 # <built-in>:0:0
	sd	ra, 8(sp)                       # 8-byte Folded Spill
	.cfi_offset ra, -8
.Ltmp133:
	#DEBUG_VALUE: main._664_7uint8..eq:$ret23 <- 0
	.loc	3 1 1 prologue_end is_stmt 1    # <built-in>:1:1
	li	a3, 64
	call	runtime.memequal@plt
.Ltmp134:
	#DEBUG_VALUE: main._664_7uint8..eq:$ret23 <- $x10
	ld	ra, 8(sp)                       # 8-byte Folded Reload
	addi	sp, sp, 16
	ret
.Ltmp135:
.Lfunc_end24:
	.size	main._664_7uint8..eq, .Lfunc_end24-main._664_7uint8..eq
	.cfi_endproc
                                        # -- End function
	.globl	main._6256_7uint8..eq           # -- Begin function main._6256_7uint8..eq
	.p2align	2
	.type	main._6256_7uint8..eq,@function
main._6256_7uint8..eq:                  # @main._6256_7uint8..eq
.Lfunc_begin25:
	.loc	3 1 0                           # <built-in>:1:0
	.cfi_startproc
# %bb.0:                                # %entry
	#DEBUG_VALUE: main._6256_7uint8..eq:key1 <- $x11
	#DEBUG_VALUE: main._6256_7uint8..eq:key2 <- $x12
	addi	sp, sp, -16
	.cfi_def_cfa_offset 16
.Ltmp136:
	.loc	3 0 0 is_stmt 0                 # <built-in>:0:0
	sd	ra, 8(sp)                       # 8-byte Folded Spill
	.cfi_offset ra, -8
.Ltmp137:
	#DEBUG_VALUE: main._6256_7uint8..eq:$ret24 <- 0
	.loc	3 1 1 prologue_end is_stmt 1    # <built-in>:1:1
	li	a3, 256
	call	runtime.memequal@plt
.Ltmp138:
	#DEBUG_VALUE: main._6256_7uint8..eq:$ret24 <- $x10
	ld	ra, 8(sp)                       # 8-byte Folded Reload
	addi	sp, sp, 16
	ret
.Ltmp139:
.Lfunc_end25:
	.size	main._6256_7uint8..eq, .Lfunc_end25-main._6256_7uint8..eq
	.cfi_endproc
                                        # -- End function
	.type	string..d,@object               # @string..d
	.section	.rodata.string..d,"aG",@progbits,string..d,comdat
	.weak	string..d
	.p2align	4
string..d:
	.quad	16                              # 0x10
	.quad	8                               # 0x8
	.word	2296014490                      # 0x88da669a
	.byte	0                               # 0x0
	.byte	8                               # 0x8
	.byte	8                               # 0x8
	.byte	24                              # 0x18
	.quad	runtime.strequal..f
	.quad	gcbits..ba
	.quad	go..C1
	.quad	go..C4
	.quad	string..p
	.size	string..d, 64

	.type	gcbits..ba,@object              # @gcbits..ba
	.section	.rodata.gcbits..ba,"aG",@progbits,gcbits..ba,comdat
	.weak	gcbits..ba
gcbits..ba:
	.byte	1
	.size	gcbits..ba, 1

	.type	.Lconst.0,@object               # @const.0
	.section	.rodata,"a",@progbits
.Lconst.0:
	.asciz	"string"
	.size	.Lconst.0, 7

	.type	go..C1,@object                  # @go..C1
	.p2align	3
go..C1:
	.quad	.Lconst.0
	.quad	6                               # 0x6
	.size	go..C1, 16

	.type	go..C2,@object                  # @go..C2
	.p2align	3
go..C2:
	.quad	.Lconst.0
	.quad	6                               # 0x6
	.size	go..C2, 16

	.type	go..C3,@object                  # @go..C3
	.p2align	4
go..C3:
	.zero	40
	.size	go..C3, 40

	.type	go..C4,@object                  # @go..C4
	.p2align	4
go..C4:
	.quad	go..C2
	.quad	0
	.quad	go..C3
	.quad	0                               # 0x0
	.quad	0                               # 0x0
	.size	go..C4, 40

	.type	string..p,@object               # @string..p
	.section	.rodata.string..p,"aG",@progbits,string..p,comdat
	.weak	string..p
	.p2align	4
string..p:
	.quad	8                               # 0x8
	.quad	8                               # 0x8
	.word	2376493481                      # 0x8da669a9
	.byte	8                               # 0x8
	.byte	8                               # 0x8
	.byte	8                               # 0x8
	.byte	54                              # 0x36
	.quad	runtime.memequal64..f
	.quad	gcbits..ba
	.quad	go..C5
	.quad	0
	.quad	0
	.quad	string..d
	.size	string..p, 72

	.type	.Lconst.1,@object               # @const.1
	.section	.rodata,"a",@progbits
.Lconst.1:
	.asciz	"*string"
	.size	.Lconst.1, 8

	.type	go..C5,@object                  # @go..C5
	.p2align	3
go..C5:
	.quad	.Lconst.1
	.quad	7                               # 0x7
	.size	go..C5, 16

	.type	.Lconst.2,@object               # @const.2
.Lconst.2:
	.asciz	"hello world!"
	.size	.Lconst.2, 13

	.type	go..C6,@object                  # @go..C6
	.p2align	3
go..C6:
	.quad	.Lconst.2
	.quad	12                              # 0xc
	.size	go..C6, 16

	.type	.Lconst.3,@object               # @const.3
	.p2align	3
.Lconst.3:
	.quad	string..d
	.quad	go..C6
	.size	.Lconst.3, 16

	.type	.Lconst.4,@object               # @const.4
.Lconst.4:
	.asciz	"0w\257\f\222t\b\002A\341\301\007\346\326\030\346path\tcommand-line-arguments\nbuild\t-compiler=gccgo\nbuild\tCGO_ENABLED=1\nbuild\tCGO_CFLAGS=\nbuild\tCGO_CPPFLAGS=\nbuild\tCGO_CXXFLAGS=\nbuild\tCGO_LDFLAGS=\nbuild\tGOARCH=amd64\nbuild\tGOEXPERIMENT=fieldtrack\nbuild\tGOOS=linux\nbuild\tGOAMD64=v1\n\3712C1\206\030 r\000\202B\020A\026\330\362"
	.size	.Lconst.4, 263

	.type	main.main..init0..f,@object     # @main.main..init0..f
	.globl	main.main..init0..f
	.p2align	3
main.main..init0..f:
	.quad	main.main..init0
	.size	main.main..init0..f, 8

	.type	main.struct_4runtime_0gList_cruntime_0n_bint32_5..eq..f,@object # @main.struct_4runtime_0gList_cruntime_0n_bint32_5..eq..f
	.globl	main.struct_4runtime_0gList_cruntime_0n_bint32_5..eq..f
	.p2align	3
main.struct_4runtime_0gList_cruntime_0n_bint32_5..eq..f:
	.quad	main.struct_4runtime_0gList_cruntime_0n_bint32_5..eq
	.size	main.struct_4runtime_0gList_cruntime_0n_bint32_5..eq..f, 8

	.type	main._632_7uintptr..eq..f,@object # @main._632_7uintptr..eq..f
	.globl	main._632_7uintptr..eq..f
	.p2align	3
main._632_7uintptr..eq..f:
	.quad	main._632_7uintptr..eq
	.size	main._632_7uintptr..eq..f, 8

	.type	main._6256_7uint64..eq..f,@object # @main._6256_7uint64..eq..f
	.globl	main._6256_7uint64..eq..f
	.p2align	3
main._6256_7uint64..eq..f:
	.quad	main._6256_7uint64..eq
	.size	main._6256_7uint64..eq..f, 8

	.type	main._661_7struct_4Size_buint32_cMallocs_buint64_cFrees_buint64_5..eq..f,@object # @main._661_7struct_4Size_buint32_cMallocs_buint64_cFrees_buint64_5..eq..f
	.globl	main._661_7struct_4Size_buint32_cMallocs_buint64_cFrees_buint64_5..eq..f
	.p2align	3
main._661_7struct_4Size_buint32_cMallocs_buint64_cFrees_buint64_5..eq..f:
	.quad	main._661_7struct_4Size_buint32_cMallocs_buint64_cFrees_buint64_5..eq
	.size	main._661_7struct_4Size_buint32_cMallocs_buint64_cFrees_buint64_5..eq..f, 8

	.type	main.struct_4Size_buint32_cMallocs_buint64_cFrees_buint64_5..eq..f,@object # @main.struct_4Size_buint32_cMallocs_buint64_cFrees_buint64_5..eq..f
	.globl	main.struct_4Size_buint32_cMallocs_buint64_cFrees_buint64_5..eq..f
	.p2align	3
main.struct_4Size_buint32_cMallocs_buint64_cFrees_buint64_5..eq..f:
	.quad	main.struct_4Size_buint32_cMallocs_buint64_cFrees_buint64_5..eq
	.size	main.struct_4Size_buint32_cMallocs_buint64_cFrees_buint64_5..eq..f, 8

	.type	main._6122_7uintptr..eq..f,@object # @main._6122_7uintptr..eq..f
	.globl	main._6122_7uintptr..eq..f
	.p2align	3
main._6122_7uintptr..eq..f:
	.quad	main._6122_7uintptr..eq
	.size	main._6122_7uintptr..eq..f, 8

	.type	main._68_7uint64..eq..f,@object # @main._68_7uint64..eq..f
	.globl	main._68_7uint64..eq..f
	.p2align	3
main._68_7uint64..eq..f:
	.quad	main._68_7uint64..eq
	.size	main._68_7uint64..eq..f, 8

	.type	main._6128_7uint8..eq..f,@object # @main._6128_7uint8..eq..f
	.globl	main._6128_7uint8..eq..f
	.p2align	3
main._6128_7uint8..eq..f:
	.quad	main._6128_7uint8..eq
	.size	main._6128_7uint8..eq..f, 8

	.type	main._64096_7uint8..eq..f,@object # @main._64096_7uint8..eq..f
	.globl	main._64096_7uint8..eq..f
	.p2align	3
main._64096_7uint8..eq..f:
	.quad	main._64096_7uint8..eq
	.size	main._64096_7uint8..eq..f, 8

	.type	main._668_7uint16..eq..f,@object # @main._668_7uint16..eq..f
	.globl	main._668_7uint16..eq..f
	.p2align	3
main._668_7uint16..eq..f:
	.quad	main._668_7uint16..eq
	.size	main._668_7uint16..eq..f, 8

	.type	main._633_7float64..eq..f,@object # @main._633_7float64..eq..f
	.globl	main._633_7float64..eq..f
	.p2align	3
main._633_7float64..eq..f:
	.quad	main._633_7float64..eq
	.size	main._633_7float64..eq..f, 8

	.type	main._665_7uint32..eq..f,@object # @main._665_7uint32..eq..f
	.globl	main._665_7uint32..eq..f
	.p2align	3
main._665_7uint32..eq..f:
	.quad	main._665_7uint32..eq
	.size	main._665_7uint32..eq..f, 8

	.type	main._64_7uintptr..eq..f,@object # @main._64_7uintptr..eq..f
	.globl	main._64_7uintptr..eq..f
	.p2align	3
main._64_7uintptr..eq..f:
	.quad	main._64_7uintptr..eq
	.size	main._64_7uintptr..eq..f, 8

	.type	main._65_7uint..eq..f,@object   # @main._65_7uint..eq..f
	.globl	main._65_7uint..eq..f
	.p2align	3
main._65_7uint..eq..f:
	.quad	main._65_7uint..eq
	.size	main._65_7uint..eq..f, 8

	.type	main._6512_7uint8..eq..f,@object # @main._6512_7uint8..eq..f
	.globl	main._6512_7uint8..eq..f
	.p2align	3
main._6512_7uint8..eq..f:
	.quad	main._6512_7uint8..eq
	.size	main._6512_7uint8..eq..f, 8

	.type	main._6249_7uint8..eq..f,@object # @main._6249_7uint8..eq..f
	.globl	main._6249_7uint8..eq..f
	.p2align	3
main._6249_7uint8..eq..f:
	.quad	main._6249_7uint8..eq
	.size	main._6249_7uint8..eq..f, 8

	.type	main._6129_7uint8..eq..f,@object # @main._6129_7uint8..eq..f
	.globl	main._6129_7uint8..eq..f
	.p2align	3
main._6129_7uint8..eq..f:
	.quad	main._6129_7uint8..eq
	.size	main._6129_7uint8..eq..f, 8

	.type	main._632_7uint8..eq..f,@object # @main._632_7uint8..eq..f
	.globl	main._632_7uint8..eq..f
	.p2align	3
main._632_7uint8..eq..f:
	.quad	main._632_7uint8..eq
	.size	main._632_7uint8..eq..f, 8

	.type	main._627_7string..eq..f,@object # @main._627_7string..eq..f
	.globl	main._627_7string..eq..f
	.p2align	3
main._627_7string..eq..f:
	.quad	main._627_7string..eq
	.size	main._627_7string..eq..f, 8

	.type	main._61024_7uint8..eq..f,@object # @main._61024_7uint8..eq..f
	.globl	main._61024_7uint8..eq..f
	.p2align	3
main._61024_7uint8..eq..f:
	.quad	main._61024_7uint8..eq
	.size	main._61024_7uint8..eq..f, 8

	.type	main._62_7int32..eq..f,@object  # @main._62_7int32..eq..f
	.globl	main._62_7int32..eq..f
	.p2align	3
main._62_7int32..eq..f:
	.quad	main._62_7int32..eq
	.size	main._62_7int32..eq..f, 8

	.type	main._664_7uint8..eq..f,@object # @main._664_7uint8..eq..f
	.globl	main._664_7uint8..eq..f
	.p2align	3
main._664_7uint8..eq..f:
	.quad	main._664_7uint8..eq
	.size	main._664_7uint8..eq..f, 8

	.type	main._6256_7uint8..eq..f,@object # @main._6256_7uint8..eq..f
	.globl	main._6256_7uint8..eq..f
	.p2align	3
main._6256_7uint8..eq..f:
	.quad	main._6256_7uint8..eq
	.size	main._6256_7uint8..eq..f, 8

	.type	main..types,@object             # @main..types
	.globl	main..types
	.p2align	3
main..types:
	.quad	1                               # 0x1
	.quad	string..p
	.size	main..types, 16

	.type	go..typelists,@object           # @go..typelists
	.p2align	4
go..typelists:
	.quad	errors..types
	.quad	fmt..types
	.quad	internal_1cpu..types
	.quad	internal_1oserror..types
	.quad	internal_1poll..types
	.quad	internal_1reflectlite..types
	.quad	internal_1testlog..types
	.quad	io..types
	.quad	io_1fs..types
	.quad	math..types
	.quad	os..types
	.quad	path..types
	.quad	reflect..types
	.quad	runtime..types
	.quad	sort..types
	.quad	strconv..types
	.quad	sync..types
	.quad	syscall..types
	.quad	time..types
	.quad	unicode..types
	.quad	internal_1abi..types
	.quad	internal_1bytealg..types
	.quad	internal_1fmtsort..types
	.quad	internal_1goarch..types
	.quad	internal_1goexperiment..types
	.quad	internal_1goos..types
	.quad	internal_1itoa..types
	.quad	internal_1race..types
	.quad	internal_1syscall_1execenv..types
	.quad	internal_1syscall_1unix..types
	.quad	internal_1unsafeheader..types
	.quad	math_1bits..types
	.quad	runtime_1internal_1atomic..types
	.quad	runtime_1internal_1math..types
	.quad	runtime_1internal_1sys..types
	.quad	sync_1atomic..types
	.quad	unicode_1utf8..types
	.quad	main..types
	.size	go..typelists, 304

	.section	".note.GNU-split-stack","",@progbits
	.section	".note.GNU-stack","",@progbits